
stm32f401ccu6_filemanager.elf:     file format elf32-littlearm

Sections:
Idx Name          Size      VMA       LMA       File off  Algn
  0 .isr_vector   00000194  08000000  08000000  00010000  2**0
                  CONTENTS, ALLOC, LOAD, READONLY, DATA
  1 .text         000047fc  08000194  08000194  00010194  2**2
                  CONTENTS, ALLOC, LOAD, READONLY, CODE
  2 .rodata       000037b0  08004990  08004990  00014990  2**2
                  CONTENTS, ALLOC, LOAD, READONLY, DATA
  3 .ARM.extab    00000000  08008140  08008140  00020108  2**0
                  CONTENTS
  4 .ARM          00000000  08008140  08008140  00020108  2**0
                  CONTENTS
  5 .preinit_array 00000000  08008140  08008140  00020108  2**0
                  CONTENTS, ALLOC, LOAD, DATA
  6 .init_array   00000004  08008140  08008140  00018140  2**2
                  CONTENTS, ALLOC, LOAD, DATA
  7 .fini_array   00000004  08008144  08008144  00018144  2**2
                  CONTENTS, ALLOC, LOAD, DATA
  8 .data         00000108  20000000  08008148  00020000  2**2
                  CONTENTS, ALLOC, LOAD, DATA
  9 .bss          00000854  20000108  08008250  00020108  2**2
                  ALLOC
 10 ._user_heap_stack 00000604  2000095c  08008250  0002095c  2**0
                  ALLOC
 11 .ARM.attributes 00000030  00000000  00000000  00020108  2**0
                  CONTENTS, READONLY
 12 .comment      00000043  00000000  00000000  00020138  2**0
                  CONTENTS, READONLY
 13 .debug_frame  000004ec  00000000  00000000  0002017c  2**2
                  CONTENTS, READONLY, DEBUGGING, OCTETS

Disassembly of section .text:

08000194 <__do_global_dtors_aux>:
 8000194:	b510      	push	{r4, lr}
 8000196:	4c05      	ldr	r4, [pc, #20]	; (80001ac <__do_global_dtors_aux+0x18>)
 8000198:	7823      	ldrb	r3, [r4, #0]
 800019a:	b933      	cbnz	r3, 80001aa <__do_global_dtors_aux+0x16>
 800019c:	4b04      	ldr	r3, [pc, #16]	; (80001b0 <__do_global_dtors_aux+0x1c>)
 800019e:	b113      	cbz	r3, 80001a6 <__do_global_dtors_aux+0x12>
 80001a0:	4804      	ldr	r0, [pc, #16]	; (80001b4 <__do_global_dtors_aux+0x20>)
 80001a2:	f3af 8000 	nop.w
 80001a6:	2301      	movs	r3, #1
 80001a8:	7023      	strb	r3, [r4, #0]
 80001aa:	bd10      	pop	{r4, pc}
 80001ac:	20000108 	.word	0x20000108
 80001b0:	00000000 	.word	0x00000000
 80001b4:	08004978 	.word	0x08004978

080001b8 <frame_dummy>:
 80001b8:	b508      	push	{r3, lr}
 80001ba:	4b03      	ldr	r3, [pc, #12]	; (80001c8 <frame_dummy+0x10>)
 80001bc:	b11b      	cbz	r3, 80001c6 <frame_dummy+0xe>
 80001be:	4903      	ldr	r1, [pc, #12]	; (80001cc <frame_dummy+0x14>)
 80001c0:	4803      	ldr	r0, [pc, #12]	; (80001d0 <frame_dummy+0x18>)
 80001c2:	f3af 8000 	nop.w
 80001c6:	bd08      	pop	{r3, pc}
 80001c8:	00000000 	.word	0x00000000
 80001cc:	2000010c 	.word	0x2000010c
 80001d0:	08004978 	.word	0x08004978

080001d4 <strlen>:
 80001d4:	4603      	mov	r3, r0
 80001d6:	f813 2b01 	ldrb.w	r2, [r3], #1
 80001da:	2a00      	cmp	r2, #0
 80001dc:	d1fb      	bne.n	80001d6 <strlen+0x2>
 80001de:	1a18      	subs	r0, r3, r0
 80001e0:	3801      	subs	r0, #1
 80001e2:	4770      	bx	lr

080001e4 <LL_AHB1_GRP1_EnableClock>:
 80001e4:	4b05      	ldr	r3, [pc, #20]	; (80001fc <LL_AHB1_GRP1_EnableClock+0x18>)
 80001e6:	6b1a      	ldr	r2, [r3, #48]	; 0x30
 80001e8:	4302      	orrs	r2, r0
 80001ea:	631a      	str	r2, [r3, #48]	; 0x30
 80001ec:	6b1b      	ldr	r3, [r3, #48]	; 0x30
 80001ee:	b082      	sub	sp, #8
 80001f0:	4003      	ands	r3, r0
 80001f2:	9301      	str	r3, [sp, #4]
 80001f4:	9b01      	ldr	r3, [sp, #4]
 80001f6:	b002      	add	sp, #8
 80001f8:	4770      	bx	lr
 80001fa:	bf00      	nop
 80001fc:	40023800 	.word	0x40023800

08000200 <NVIC_EncodePriority.constprop.0>:
 8000200:	f000 0007 	and.w	r0, r0, #7
 8000204:	f1c0 0207 	rsb	r2, r0, #7
 8000208:	1d03      	adds	r3, r0, #4
 800020a:	2a04      	cmp	r2, #4
 800020c:	bf28      	it	cs
 800020e:	2204      	movcs	r2, #4
 8000210:	2b06      	cmp	r3, #6
 8000212:	f04f 33ff 	mov.w	r3, #4294967295
 8000216:	fa03 f302 	lsl.w	r3, r3, r2
 800021a:	bf8c      	ite	hi
 800021c:	3803      	subhi	r0, #3
 800021e:	2000      	movls	r0, #0
 8000220:	ea21 0103 	bic.w	r1, r1, r3
 8000224:	fa01 f000 	lsl.w	r0, r1, r0
 8000228:	4770      	bx	lr
	...

0800022c <SystemClock_Config>:
 800022c:	4a2b      	ldr	r2, [pc, #172]	; (80002dc <SystemClock_Config+0xb0>)
 800022e:	6813      	ldr	r3, [r2, #0]
 8000230:	f023 0307 	bic.w	r3, r3, #7
 8000234:	f043 0302 	orr.w	r3, r3, #2
 8000238:	b510      	push	{r4, lr}
 800023a:	6013      	str	r3, [r2, #0]
 800023c:	6813      	ldr	r3, [r2, #0]
 800023e:	f003 0307 	and.w	r3, r3, #7
 8000242:	2b02      	cmp	r3, #2
 8000244:	d1fa      	bne.n	800023c <SystemClock_Config+0x10>
 8000246:	4a26      	ldr	r2, [pc, #152]	; (80002e0 <SystemClock_Config+0xb4>)
 8000248:	6813      	ldr	r3, [r2, #0]
 800024a:	f423 4340 	bic.w	r3, r3, #49152	; 0xc000
 800024e:	f443 4300 	orr.w	r3, r3, #32768	; 0x8000
 8000252:	6013      	str	r3, [r2, #0]
 8000254:	4b23      	ldr	r3, [pc, #140]	; (80002e4 <SystemClock_Config+0xb8>)
 8000256:	681a      	ldr	r2, [r3, #0]
 8000258:	f442 3280 	orr.w	r2, r2, #65536	; 0x10000
 800025c:	601a      	str	r2, [r3, #0]
 800025e:	681a      	ldr	r2, [r3, #0]
 8000260:	0391      	lsls	r1, r2, #14
 8000262:	d5fc      	bpl.n	800025e <SystemClock_Config+0x32>
 8000264:	685a      	ldr	r2, [r3, #4]
 8000266:	4920      	ldr	r1, [pc, #128]	; (80002e8 <SystemClock_Config+0xbc>)
 8000268:	4011      	ands	r1, r2
 800026a:	4a20      	ldr	r2, [pc, #128]	; (80002ec <SystemClock_Config+0xc0>)
 800026c:	430a      	orrs	r2, r1
 800026e:	605a      	str	r2, [r3, #4]
 8000270:	685a      	ldr	r2, [r3, #4]
 8000272:	f422 3240 	bic.w	r2, r2, #196608	; 0x30000
 8000276:	605a      	str	r2, [r3, #4]
 8000278:	681a      	ldr	r2, [r3, #0]
 800027a:	f042 7280 	orr.w	r2, r2, #16777216	; 0x1000000
 800027e:	601a      	str	r2, [r3, #0]
 8000280:	4b18      	ldr	r3, [pc, #96]	; (80002e4 <SystemClock_Config+0xb8>)
 8000282:	681a      	ldr	r2, [r3, #0]
 8000284:	0192      	lsls	r2, r2, #6
 8000286:	d5fc      	bpl.n	8000282 <SystemClock_Config+0x56>
 8000288:	689a      	ldr	r2, [r3, #8]
 800028a:	4c16      	ldr	r4, [pc, #88]	; (80002e4 <SystemClock_Config+0xb8>)
 800028c:	f022 02f0 	bic.w	r2, r2, #240	; 0xf0
 8000290:	609a      	str	r2, [r3, #8]
 8000292:	689a      	ldr	r2, [r3, #8]
 8000294:	f422 52e0 	bic.w	r2, r2, #7168	; 0x1c00
 8000298:	f442 5280 	orr.w	r2, r2, #4096	; 0x1000
 800029c:	609a      	str	r2, [r3, #8]
 800029e:	689a      	ldr	r2, [r3, #8]
 80002a0:	f422 4260 	bic.w	r2, r2, #57344	; 0xe000
 80002a4:	609a      	str	r2, [r3, #8]
 80002a6:	689a      	ldr	r2, [r3, #8]
 80002a8:	f022 0203 	bic.w	r2, r2, #3
 80002ac:	f042 0202 	orr.w	r2, r2, #2
 80002b0:	609a      	str	r2, [r3, #8]
 80002b2:	68a3      	ldr	r3, [r4, #8]
 80002b4:	f003 030c 	and.w	r3, r3, #12
 80002b8:	2b08      	cmp	r3, #8
 80002ba:	d1fa      	bne.n	80002b2 <SystemClock_Config+0x86>
 80002bc:	480c      	ldr	r0, [pc, #48]	; (80002f0 <SystemClock_Config+0xc4>)
 80002be:	f001 fce7 	bl	8001c90 <LL_SetSystemCoreClock>
 80002c2:	200f      	movs	r0, #15
 80002c4:	f001 fa4c 	bl	8001760 <HAL_InitTick>
 80002c8:	b108      	cbz	r0, 80002ce <SystemClock_Config+0xa2>
 80002ca:	b672      	cpsid	i
 80002cc:	e7fe      	b.n	80002cc <SystemClock_Config+0xa0>
 80002ce:	f8d4 308c 	ldr.w	r3, [r4, #140]	; 0x8c
 80002d2:	f023 7380 	bic.w	r3, r3, #16777216	; 0x1000000
 80002d6:	f8c4 308c 	str.w	r3, [r4, #140]	; 0x8c
 80002da:	bd10      	pop	{r4, pc}
 80002dc:	40023c00 	.word	0x40023c00
 80002e0:	40007000 	.word	0x40007000
 80002e4:	40023800 	.word	0x40023800
 80002e8:	ffbf8000 	.word	0xffbf8000
 80002ec:	00402a19 	.word	0x00402a19
 80002f0:	0501bd00 	.word	0x0501bd00

080002f4 <main>:
 80002f4:	e92d 4ff0 	stmdb	sp!, {r4, r5, r6, r7, r8, r9, sl, fp, lr}
 80002f8:	f2ad 7d04 	subw	sp, sp, #1796	; 0x704
 80002fc:	2400      	movs	r4, #0
 80002fe:	f001 fa53 	bl	80017a8 <HAL_Init>
 8000302:	f7ff ff93 	bl	800022c <SystemClock_Config>
 8000306:	2004      	movs	r0, #4
 8000308:	9431      	str	r4, [sp, #196]	; 0xc4
 800030a:	f7ff ff6b 	bl	80001e4 <LL_AHB1_GRP1_EnableClock>
 800030e:	2080      	movs	r0, #128	; 0x80
 8000310:	f7ff ff68 	bl	80001e4 <LL_AHB1_GRP1_EnableClock>
 8000314:	2001      	movs	r0, #1
 8000316:	f7ff ff65 	bl	80001e4 <LL_AHB1_GRP1_EnableClock>
 800031a:	2002      	movs	r0, #2
 800031c:	f7ff ff62 	bl	80001e4 <LL_AHB1_GRP1_EnableClock>
 8000320:	f8df 933c 	ldr.w	r9, [pc, #828]	; 8000660 <main+0x36c>
 8000324:	f8df a33c 	ldr.w	sl, [pc, #828]	; 8000664 <main+0x370>
 8000328:	48c5      	ldr	r0, [pc, #788]	; (8000640 <main+0x34c>)
 800032a:	4ec6      	ldr	r6, [pc, #792]	; (8000644 <main+0x350>)
 800032c:	f8df b338 	ldr.w	fp, [pc, #824]	; 8000668 <main+0x374>
 8000330:	221c      	movs	r2, #28
 8000332:	f44f 5300 	mov.w	r3, #8192	; 0x2000
 8000336:	f44f 5580 	mov.w	r5, #4096	; 0x1000
 800033a:	2701      	movs	r7, #1
 800033c:	6183      	str	r3, [r0, #24]
 800033e:	a92c      	add	r1, sp, #176	; 0xb0
 8000340:	f8c9 2018 	str.w	r2, [r9, #24]
 8000344:	f8ca 5018 	str.w	r5, [sl, #24]
 8000348:	f04f 0802 	mov.w	r8, #2
 800034c:	e9cd 742d 	strd	r7, r4, [sp, #180]	; 0xb4
 8000350:	932c      	str	r3, [sp, #176]	; 0xb0
 8000352:	e9cd 442f 	strd	r4, r4, [sp, #188]	; 0xbc
 8000356:	f001 faa5 	bl	80018a4 <LL_GPIO_Init>
 800035a:	230c      	movs	r3, #12
 800035c:	a92c      	add	r1, sp, #176	; 0xb0
 800035e:	4648      	mov	r0, r9
 8000360:	e9cd 372c 	strd	r3, r7, [sp, #176]	; 0xb0
 8000364:	e9cd 842e 	strd	r8, r4, [sp, #184]	; 0xb8
 8000368:	9430      	str	r4, [sp, #192]	; 0xc0
 800036a:	f001 fa9b 	bl	80018a4 <LL_GPIO_Init>
 800036e:	2310      	movs	r3, #16
 8000370:	a92c      	add	r1, sp, #176	; 0xb0
 8000372:	4648      	mov	r0, r9
 8000374:	e9cd 372c 	strd	r3, r7, [sp, #176]	; 0xb0
 8000378:	e9cd 842e 	strd	r8, r4, [sp, #184]	; 0xb8
 800037c:	9730      	str	r7, [sp, #192]	; 0xc0
 800037e:	f001 fa91 	bl	80018a4 <LL_GPIO_Init>
 8000382:	a92c      	add	r1, sp, #176	; 0xb0
 8000384:	4650      	mov	r0, sl
 8000386:	e9cd 572c 	strd	r5, r7, [sp, #176]	; 0xb0
 800038a:	e9cd 842e 	strd	r8, r4, [sp, #184]	; 0xb8
 800038e:	9730      	str	r7, [sp, #192]	; 0xc0
 8000390:	f001 fa88 	bl	80018a4 <LL_GPIO_Init>
 8000394:	f44f 7370 	mov.w	r3, #960	; 0x3c0
 8000398:	a92c      	add	r1, sp, #176	; 0xb0
 800039a:	4650      	mov	r0, sl
 800039c:	e9cd 342c 	strd	r3, r4, [sp, #176]	; 0xb0
 80003a0:	4da9      	ldr	r5, [pc, #676]	; (8000648 <main+0x354>)
 80003a2:	9730      	str	r7, [sp, #192]	; 0xc0
 80003a4:	f001 fa7e 	bl	80018a4 <LL_GPIO_Init>
 80003a8:	f44f 0080 	mov.w	r0, #4194304	; 0x400000
 80003ac:	f7ff ff1a 	bl	80001e4 <LL_AHB1_GRP1_EnableClock>
 80003b0:	f44f 1000 	mov.w	r0, #2097152	; 0x200000
 80003b4:	f7ff ff16 	bl	80001e4 <LL_AHB1_GRP1_EnableClock>
 80003b8:	68e8      	ldr	r0, [r5, #12]
 80003ba:	4621      	mov	r1, r4
 80003bc:	f3c0 2002 	ubfx	r0, r0, #8, #3
 80003c0:	f7ff ff1e 	bl	8000200 <NVIC_EncodePriority.constprop.0>
 80003c4:	0100      	lsls	r0, r0, #4
 80003c6:	f44f 4280 	mov.w	r2, #16384	; 0x4000
 80003ca:	b2c0      	uxtb	r0, r0
 80003cc:	f886 030e 	strb.w	r0, [r6, #782]	; 0x30e
 80003d0:	6032      	str	r2, [r6, #0]
 80003d2:	68e8      	ldr	r0, [r5, #12]
 80003d4:	4621      	mov	r1, r4
 80003d6:	f3c0 2002 	ubfx	r0, r0, #8, #3
 80003da:	f7ff ff11 	bl	8000200 <NVIC_EncodePriority.constprop.0>
 80003de:	0100      	lsls	r0, r0, #4
 80003e0:	f44f 4200 	mov.w	r2, #32768	; 0x8000
 80003e4:	b2c0      	uxtb	r0, r0
 80003e6:	f886 030f 	strb.w	r0, [r6, #783]	; 0x30f
 80003ea:	6032      	str	r2, [r6, #0]
 80003ec:	68e8      	ldr	r0, [r5, #12]
 80003ee:	4d97      	ldr	r5, [pc, #604]	; (800064c <main+0x358>)
 80003f0:	4621      	mov	r1, r4
 80003f2:	f3c0 2002 	ubfx	r0, r0, #8, #3
 80003f6:	f7ff ff03 	bl	8000200 <NVIC_EncodePriority.constprop.0>
 80003fa:	0100      	lsls	r0, r0, #4
 80003fc:	b2c0      	uxtb	r0, r0
 80003fe:	f04f 6200 	mov.w	r2, #134217728	; 0x8000000
 8000402:	f886 033b 	strb.w	r0, [r6, #827]	; 0x33b
 8000406:	4621      	mov	r1, r4
 8000408:	6072      	str	r2, [r6, #4]
 800040a:	a82c      	add	r0, sp, #176	; 0xb0
 800040c:	2228      	movs	r2, #40	; 0x28
 800040e:	f004 f9f6 	bl	80047fe <memset>
 8000412:	f8db 2044 	ldr.w	r2, [fp, #68]	; 0x44
 8000416:	f442 5280 	orr.w	r2, r2, #4096	; 0x1000
 800041a:	f8cb 2044 	str.w	r2, [fp, #68]	; 0x44
 800041e:	f8db 2044 	ldr.w	r2, [fp, #68]	; 0x44
 8000422:	f402 5280 	and.w	r2, r2, #4096	; 0x1000
 8000426:	4638      	mov	r0, r7
 8000428:	9211      	str	r2, [sp, #68]	; 0x44
 800042a:	9a11      	ldr	r2, [sp, #68]	; 0x44
 800042c:	f7ff feda 	bl	80001e4 <LL_AHB1_GRP1_EnableClock>
 8000430:	22a0      	movs	r2, #160	; 0xa0
 8000432:	e9cd 2822 	strd	r2, r8, [sp, #136]	; 0x88
 8000436:	2203      	movs	r2, #3
 8000438:	e9cd 2424 	strd	r2, r4, [sp, #144]	; 0x90
 800043c:	a922      	add	r1, sp, #136	; 0x88
 800043e:	2205      	movs	r2, #5
 8000440:	4648      	mov	r0, r9
 8000442:	9726      	str	r7, [sp, #152]	; 0x98
 8000444:	9227      	str	r2, [sp, #156]	; 0x9c
 8000446:	f001 fa2d 	bl	80018a4 <LL_GPIO_Init>
 800044a:	6daa      	ldr	r2, [r5, #88]	; 0x58
 800044c:	4880      	ldr	r0, [pc, #512]	; (8000650 <main+0x35c>)
 800044e:	f022 6260 	bic.w	r2, r2, #234881024	; 0xe000000
 8000452:	f042 62c0 	orr.w	r2, r2, #100663296	; 0x6000000
 8000456:	65aa      	str	r2, [r5, #88]	; 0x58
 8000458:	6daa      	ldr	r2, [r5, #88]	; 0x58
 800045a:	f022 02c0 	bic.w	r2, r2, #192	; 0xc0
 800045e:	f042 0240 	orr.w	r2, r2, #64	; 0x40
 8000462:	65aa      	str	r2, [r5, #88]	; 0x58
 8000464:	6daa      	ldr	r2, [r5, #88]	; 0x58
 8000466:	f422 3240 	bic.w	r2, r2, #196608	; 0x30000
 800046a:	65aa      	str	r2, [r5, #88]	; 0x58
 800046c:	6daa      	ldr	r2, [r5, #88]	; 0x58
 800046e:	f422 7290 	bic.w	r2, r2, #288	; 0x120
 8000472:	65aa      	str	r2, [r5, #88]	; 0x58
 8000474:	6daa      	ldr	r2, [r5, #88]	; 0x58
 8000476:	f422 7200 	bic.w	r2, r2, #512	; 0x200
 800047a:	65aa      	str	r2, [r5, #88]	; 0x58
 800047c:	6daa      	ldr	r2, [r5, #88]	; 0x58
 800047e:	f442 6280 	orr.w	r2, r2, #1024	; 0x400
 8000482:	65aa      	str	r2, [r5, #88]	; 0x58
 8000484:	6daa      	ldr	r2, [r5, #88]	; 0x58
 8000486:	f422 52c0 	bic.w	r2, r2, #6144	; 0x1800
 800048a:	f442 6200 	orr.w	r2, r2, #2048	; 0x800
 800048e:	65aa      	str	r2, [r5, #88]	; 0x58
 8000490:	6daa      	ldr	r2, [r5, #88]	; 0x58
 8000492:	f422 42c0 	bic.w	r2, r2, #24576	; 0x6000
 8000496:	f442 5200 	orr.w	r2, r2, #8192	; 0x2000
 800049a:	65aa      	str	r2, [r5, #88]	; 0x58
 800049c:	6eea      	ldr	r2, [r5, #108]	; 0x6c
 800049e:	f022 0204 	bic.w	r2, r2, #4
 80004a2:	66ea      	str	r2, [r5, #108]	; 0x6c
 80004a4:	f44f 7282 	mov.w	r2, #260	; 0x104
 80004a8:	e9cd 242d 	strd	r2, r4, [sp, #180]	; 0xb4
 80004ac:	f44f 7200 	mov.w	r2, #512	; 0x200
 80004b0:	e9cd 2431 	strd	r2, r4, [sp, #196]	; 0xc4
 80004b4:	a92c      	add	r1, sp, #176	; 0xb0
 80004b6:	220a      	movs	r2, #10
 80004b8:	e9cd 842f 	strd	r8, r4, [sp, #188]	; 0xbc
 80004bc:	9235      	str	r2, [sp, #212]	; 0xd4
 80004be:	e9cd 4433 	strd	r4, r4, [sp, #204]	; 0xcc
 80004c2:	942c      	str	r4, [sp, #176]	; 0xb0
 80004c4:	f001 fa8c 	bl	80019e0 <LL_SPI_Init>
 80004c8:	4961      	ldr	r1, [pc, #388]	; (8000650 <main+0x35c>)
 80004ca:	684a      	ldr	r2, [r1, #4]
 80004cc:	f022 0210 	bic.w	r2, r2, #16
 80004d0:	604a      	str	r2, [r1, #4]
 80004d2:	a82c      	add	r0, sp, #176	; 0xb0
 80004d4:	2214      	movs	r2, #20
 80004d6:	4621      	mov	r1, r4
 80004d8:	f004 f991 	bl	80047fe <memset>
 80004dc:	f8db 2044 	ldr.w	r2, [fp, #68]	; 0x44
 80004e0:	4b59      	ldr	r3, [pc, #356]	; (8000648 <main+0x354>)
 80004e2:	f442 3200 	orr.w	r2, r2, #131072	; 0x20000
 80004e6:	f8cb 2044 	str.w	r2, [fp, #68]	; 0x44
 80004ea:	f8db 2044 	ldr.w	r2, [fp, #68]	; 0x44
 80004ee:	f402 3200 	and.w	r2, r2, #131072	; 0x20000
 80004f2:	9212      	str	r2, [sp, #72]	; 0x48
 80004f4:	9a12      	ldr	r2, [sp, #72]	; 0x48
 80004f6:	68d8      	ldr	r0, [r3, #12]
 80004f8:	4641      	mov	r1, r8
 80004fa:	f3c0 2002 	ubfx	r0, r0, #8, #3
 80004fe:	f7ff fe7f 	bl	8000200 <NVIC_EncodePriority.constprop.0>
 8000502:	0100      	lsls	r0, r0, #4
 8000504:	b2c0      	uxtb	r0, r0
 8000506:	f04f 7200 	mov.w	r2, #33554432	; 0x2000000
 800050a:	f240 33e7 	movw	r3, #999	; 0x3e7
 800050e:	f886 0319 	strb.w	r0, [r6, #793]	; 0x319
 8000512:	6032      	str	r2, [r6, #0]
 8000514:	f8ad 30b0 	strh.w	r3, [sp, #176]	; 0xb0
 8000518:	ab2c      	add	r3, sp, #176	; 0xb0
 800051a:	f240 12a3 	movw	r2, #419	; 0x1a3
 800051e:	4619      	mov	r1, r3
 8000520:	484c      	ldr	r0, [pc, #304]	; (8000654 <main+0x360>)
 8000522:	942d      	str	r4, [sp, #180]	; 0xb4
 8000524:	e9cd 242e 	strd	r2, r4, [sp, #184]	; 0xb8
 8000528:	f001 fa8a 	bl	8001a40 <LL_TIM_Init>
 800052c:	4b49      	ldr	r3, [pc, #292]	; (8000654 <main+0x360>)
 800052e:	4e4a      	ldr	r6, [pc, #296]	; (8000658 <main+0x364>)
 8000530:	681a      	ldr	r2, [r3, #0]
 8000532:	f022 0280 	bic.w	r2, r2, #128	; 0x80
 8000536:	601a      	str	r2, [r3, #0]
 8000538:	4621      	mov	r1, r4
 800053a:	2228      	movs	r2, #40	; 0x28
 800053c:	a82c      	add	r0, sp, #176	; 0xb0
 800053e:	f004 f95e 	bl	80047fe <memset>
 8000542:	f8db 2040 	ldr.w	r2, [fp, #64]	; 0x40
 8000546:	f442 4280 	orr.w	r2, r2, #16384	; 0x4000
 800054a:	f8cb 2040 	str.w	r2, [fp, #64]	; 0x40
 800054e:	f8db 2040 	ldr.w	r2, [fp, #64]	; 0x40
 8000552:	f402 4280 	and.w	r2, r2, #16384	; 0x4000
 8000556:	4640      	mov	r0, r8
 8000558:	9213      	str	r2, [sp, #76]	; 0x4c
 800055a:	9a13      	ldr	r2, [sp, #76]	; 0x4c
 800055c:	f7ff fe42 	bl	80001e4 <LL_AHB1_GRP1_EnableClock>
 8000560:	2003      	movs	r0, #3
 8000562:	e9cd 0424 	strd	r0, r4, [sp, #144]	; 0x90
 8000566:	2005      	movs	r0, #5
 8000568:	9027      	str	r0, [sp, #156]	; 0x9c
 800056a:	a822      	add	r0, sp, #136	; 0x88
 800056c:	f44f 4260 	mov.w	r2, #57344	; 0xe000
 8000570:	4601      	mov	r1, r0
 8000572:	4650      	mov	r0, sl
 8000574:	e9cd 2822 	strd	r2, r8, [sp, #136]	; 0x88
 8000578:	9426      	str	r4, [sp, #152]	; 0x98
 800057a:	f001 f993 	bl	80018a4 <LL_GPIO_Init>
 800057e:	4a37      	ldr	r2, [pc, #220]	; (800065c <main+0x368>)
 8000580:	6d91      	ldr	r1, [r2, #88]	; 0x58
 8000582:	f021 6160 	bic.w	r1, r1, #234881024	; 0xe000000
 8000586:	6591      	str	r1, [r2, #88]	; 0x58
 8000588:	6d91      	ldr	r1, [r2, #88]	; 0x58
 800058a:	f021 01c0 	bic.w	r1, r1, #192	; 0xc0
 800058e:	6591      	str	r1, [r2, #88]	; 0x58
 8000590:	6d91      	ldr	r1, [r2, #88]	; 0x58
 8000592:	f421 3140 	bic.w	r1, r1, #196608	; 0x30000
 8000596:	6591      	str	r1, [r2, #88]	; 0x58
 8000598:	6d91      	ldr	r1, [r2, #88]	; 0x58
 800059a:	f421 7190 	bic.w	r1, r1, #288	; 0x120
 800059e:	6591      	str	r1, [r2, #88]	; 0x58
 80005a0:	6d91      	ldr	r1, [r2, #88]	; 0x58
 80005a2:	f421 7100 	bic.w	r1, r1, #512	; 0x200
 80005a6:	6591      	str	r1, [r2, #88]	; 0x58
 80005a8:	6d91      	ldr	r1, [r2, #88]	; 0x58
 80005aa:	f441 6180 	orr.w	r1, r1, #1024	; 0x400
 80005ae:	6591      	str	r1, [r2, #88]	; 0x58
 80005b0:	6d91      	ldr	r1, [r2, #88]	; 0x58
 80005b2:	f421 51c0 	bic.w	r1, r1, #6144	; 0x1800
 80005b6:	6591      	str	r1, [r2, #88]	; 0x58
 80005b8:	6d91      	ldr	r1, [r2, #88]	; 0x58
 80005ba:	f421 41c0 	bic.w	r1, r1, #24576	; 0x6000
 80005be:	6591      	str	r1, [r2, #88]	; 0x58
 80005c0:	6ed1      	ldr	r1, [r2, #108]	; 0x6c
 80005c2:	f021 0104 	bic.w	r1, r1, #4
 80005c6:	66d1      	str	r1, [r2, #108]	; 0x6c
 80005c8:	6f11      	ldr	r1, [r2, #112]	; 0x70
 80005ca:	f021 6160 	bic.w	r1, r1, #234881024	; 0xe000000
 80005ce:	6711      	str	r1, [r2, #112]	; 0x70
 80005d0:	6f11      	ldr	r1, [r2, #112]	; 0x70
 80005d2:	f021 01c0 	bic.w	r1, r1, #192	; 0xc0
 80005d6:	f041 0140 	orr.w	r1, r1, #64	; 0x40
 80005da:	6711      	str	r1, [r2, #112]	; 0x70
 80005dc:	6f11      	ldr	r1, [r2, #112]	; 0x70
 80005de:	f421 3140 	bic.w	r1, r1, #196608	; 0x30000
 80005e2:	6711      	str	r1, [r2, #112]	; 0x70
 80005e4:	6f11      	ldr	r1, [r2, #112]	; 0x70
 80005e6:	f421 7190 	bic.w	r1, r1, #288	; 0x120
 80005ea:	6711      	str	r1, [r2, #112]	; 0x70
 80005ec:	6f11      	ldr	r1, [r2, #112]	; 0x70
 80005ee:	f421 7100 	bic.w	r1, r1, #512	; 0x200
 80005f2:	6711      	str	r1, [r2, #112]	; 0x70
 80005f4:	6f11      	ldr	r1, [r2, #112]	; 0x70
 80005f6:	f441 6180 	orr.w	r1, r1, #1024	; 0x400
 80005fa:	6711      	str	r1, [r2, #112]	; 0x70
 80005fc:	6f11      	ldr	r1, [r2, #112]	; 0x70
 80005fe:	f421 51c0 	bic.w	r1, r1, #6144	; 0x1800
 8000602:	6711      	str	r1, [r2, #112]	; 0x70
 8000604:	6f11      	ldr	r1, [r2, #112]	; 0x70
 8000606:	f421 41c0 	bic.w	r1, r1, #24576	; 0x6000
 800060a:	6711      	str	r1, [r2, #112]	; 0x70
 800060c:	f8d2 1084 	ldr.w	r1, [r2, #132]	; 0x84
 8000610:	f44f 7082 	mov.w	r0, #260	; 0x104
 8000614:	f021 0104 	bic.w	r1, r1, #4
 8000618:	f8c2 1084 	str.w	r1, [r2, #132]	; 0x84
 800061c:	2230      	movs	r2, #48	; 0x30
 800061e:	e9cd 042d 	strd	r0, r4, [sp, #180]	; 0xb4
 8000622:	f44f 7000 	mov.w	r0, #512	; 0x200
 8000626:	e9cd 0231 	strd	r0, r2, [sp, #196]	; 0xc4
 800062a:	200a      	movs	r0, #10
 800062c:	9035      	str	r0, [sp, #212]	; 0xd4
 800062e:	a82c      	add	r0, sp, #176	; 0xb0
 8000630:	4601      	mov	r1, r0
 8000632:	4630      	mov	r0, r6
 8000634:	e9cd 442f 	strd	r4, r4, [sp, #188]	; 0xbc
 8000638:	e9cd 4433 	strd	r4, r4, [sp, #204]	; 0xcc
 800063c:	942c      	str	r4, [sp, #176]	; 0xb0
 800063e:	e015      	b.n	800066c <main+0x378>
 8000640:	40020800 	.word	0x40020800
 8000644:	e000e100 	.word	0xe000e100
 8000648:	e000ed00 	.word	0xe000ed00
 800064c:	40026400 	.word	0x40026400
 8000650:	40013000 	.word	0x40013000
 8000654:	40014400 	.word	0x40014400
 8000658:	40003800 	.word	0x40003800
 800065c:	40026000 	.word	0x40026000
 8000660:	40020000 	.word	0x40020000
 8000664:	40020400 	.word	0x40020400
 8000668:	40023800 	.word	0x40023800
 800066c:	f001 f9b8 	bl	80019e0 <LL_SPI_Init>
 8000670:	6872      	ldr	r2, [r6, #4]
 8000672:	f022 0210 	bic.w	r2, r2, #16
 8000676:	6072      	str	r2, [r6, #4]
 8000678:	ae19      	add	r6, sp, #100	; 0x64
 800067a:	2214      	movs	r2, #20
 800067c:	4621      	mov	r1, r4
 800067e:	4630      	mov	r0, r6
 8000680:	f004 f8bd 	bl	80047fe <memset>
 8000684:	2220      	movs	r2, #32
 8000686:	4621      	mov	r1, r4
 8000688:	a82c      	add	r0, sp, #176	; 0xb0
 800068a:	f004 f8b8 	bl	80047fe <memset>
 800068e:	2218      	movs	r2, #24
 8000690:	4621      	mov	r1, r4
 8000692:	a822      	add	r0, sp, #136	; 0x88
 8000694:	f004 f8b3 	bl	80047fe <memset>
 8000698:	f8db 2040 	ldr.w	r2, [fp, #64]	; 0x40
 800069c:	ea42 0208 	orr.w	r2, r2, r8
 80006a0:	f8cb 2040 	str.w	r2, [fp, #64]	; 0x40
 80006a4:	f8db 2040 	ldr.w	r2, [fp, #64]	; 0x40
 80006a8:	f240 33e7 	movw	r3, #999	; 0x3e7
 80006ac:	f5ab 3b0d 	sub.w	fp, fp, #144384	; 0x23400
 80006b0:	ea02 0208 	and.w	r2, r2, r8
 80006b4:	4631      	mov	r1, r6
 80006b6:	9214      	str	r2, [sp, #80]	; 0x50
 80006b8:	f8ad 3064 	strh.w	r3, [sp, #100]	; 0x64
 80006bc:	4658      	mov	r0, fp
 80006be:	23d1      	movs	r3, #209	; 0xd1
 80006c0:	9a14      	ldr	r2, [sp, #80]	; 0x50
 80006c2:	931b      	str	r3, [sp, #108]	; 0x6c
 80006c4:	f001 f9bc 	bl	8001a40 <LL_TIM_Init>
 80006c8:	f8db 3000 	ldr.w	r3, [fp]
 80006cc:	f023 0380 	bic.w	r3, r3, #128	; 0x80
 80006d0:	f8cb 3000 	str.w	r3, [fp]
 80006d4:	f04f 4380 	mov.w	r3, #1073741824	; 0x40000000
 80006d8:	a82c      	add	r0, sp, #176	; 0xb0
 80006da:	f8d3 2418 	ldr.w	r2, [r3, #1048]	; 0x418
 80006de:	f042 0208 	orr.w	r2, r2, #8
 80006e2:	f8c3 2418 	str.w	r2, [r3, #1048]	; 0x418
 80006e6:	2260      	movs	r2, #96	; 0x60
 80006e8:	e9cd 242c 	strd	r2, r4, [sp, #176]	; 0xb0
 80006ec:	226d      	movs	r2, #109	; 0x6d
 80006ee:	4639      	mov	r1, r7
 80006f0:	e9cd 242f 	strd	r2, r4, [sp, #188]	; 0xbc
 80006f4:	4602      	mov	r2, r0
 80006f6:	4658      	mov	r0, fp
 80006f8:	942e      	str	r4, [sp, #184]	; 0xb8
 80006fa:	f001 f9ed 	bl	8001ad8 <LL_TIM_OC_Init>
 80006fe:	f04f 4380 	mov.w	r3, #1073741824	; 0x40000000
 8000702:	4638      	mov	r0, r7
 8000704:	f8d3 2418 	ldr.w	r2, [r3, #1048]	; 0x418
 8000708:	f022 0204 	bic.w	r2, r2, #4
 800070c:	f8c3 2418 	str.w	r2, [r3, #1048]	; 0x418
 8000710:	f8db 3004 	ldr.w	r3, [fp, #4]
 8000714:	f023 0370 	bic.w	r3, r3, #112	; 0x70
 8000718:	f8cb 3004 	str.w	r3, [fp, #4]
 800071c:	f8db 3008 	ldr.w	r3, [fp, #8]
 8000720:	f023 0380 	bic.w	r3, r3, #128	; 0x80
 8000724:	f8cb 3008 	str.w	r3, [fp, #8]
 8000728:	f7ff fd5c 	bl	80001e4 <LL_AHB1_GRP1_EnableClock>
 800072c:	a822      	add	r0, sp, #136	; 0x88
 800072e:	4601      	mov	r1, r0
 8000730:	f04f 0b40 	mov.w	fp, #64	; 0x40
 8000734:	4648      	mov	r0, r9
 8000736:	e9cd b822 	strd	fp, r8, [sp, #136]	; 0x88
 800073a:	e9cd 4826 	strd	r4, r8, [sp, #152]	; 0x98
 800073e:	e9cd 4424 	strd	r4, r4, [sp, #144]	; 0x90
 8000742:	f001 f8af 	bl	80018a4 <LL_GPIO_Init>
 8000746:	f001 faa9 	bl	8001c9c <MX_FATFS_Init>
 800074a:	4642      	mov	r2, r8
 800074c:	4650      	mov	r0, sl
 800074e:	4623      	mov	r3, r4
 8000750:	4659      	mov	r1, fp
 8000752:	f002 fabd 	bl	8002cd0 <KEYB_Add_Button>
 8000756:	4650      	mov	r0, sl
 8000758:	4623      	mov	r3, r4
 800075a:	2203      	movs	r2, #3
 800075c:	2180      	movs	r1, #128	; 0x80
 800075e:	f002 fab7 	bl	8002cd0 <KEYB_Add_Button>
 8000762:	4650      	mov	r0, sl
 8000764:	4623      	mov	r3, r4
 8000766:	4622      	mov	r2, r4
 8000768:	f44f 7180 	mov.w	r1, #256	; 0x100
 800076c:	f002 fab0 	bl	8002cd0 <KEYB_Add_Button>
 8000770:	463a      	mov	r2, r7
 8000772:	4650      	mov	r0, sl
 8000774:	4623      	mov	r3, r4
 8000776:	f44f 7100 	mov.w	r1, #512	; 0x200
 800077a:	f002 faa9 	bl	8002cd0 <KEYB_Add_Button>
 800077e:	4a65      	ldr	r2, [pc, #404]	; (8000914 <main+0x620>)
 8000780:	f8df a1c8 	ldr.w	sl, [pc, #456]	; 800094c <main+0x658>
 8000784:	68d3      	ldr	r3, [r2, #12]
 8000786:	433b      	orrs	r3, r7
 8000788:	60d3      	str	r3, [r2, #12]
 800078a:	6813      	ldr	r3, [r2, #0]
 800078c:	433b      	orrs	r3, r7
 800078e:	6013      	str	r3, [r2, #0]
 8000790:	e89a 000f 	ldmia.w	sl, {r0, r1, r2, r3}
 8000794:	f10d 0c54 	add.w	ip, sp, #84	; 0x54
 8000798:	e88c 000f 	stmia.w	ip, {r0, r1, r2, r3}
 800079c:	2303      	movs	r3, #3
 800079e:	e9cd 391b 	strd	r3, r9, [sp, #108]	; 0x6c
 80007a2:	2308      	movs	r3, #8
 80007a4:	f8ad 3074 	strh.w	r3, [sp, #116]	; 0x74
 80007a8:	495b      	ldr	r1, [pc, #364]	; (8000918 <main+0x624>)
 80007aa:	f8cd 9078 	str.w	r9, [sp, #120]	; 0x78
 80007ae:	2304      	movs	r3, #4
 80007b0:	f8ad 307c 	strh.w	r3, [sp, #124]	; 0x7c
 80007b4:	f04f 0310 	mov.w	r3, #16
 80007b8:	e9cd 1519 	strd	r1, r5, [sp, #100]	; 0x64
 80007bc:	f8ad 3084 	strh.w	r3, [sp, #132]	; 0x84
 80007c0:	e89c 000f 	ldmia.w	ip, {r0, r1, r2, r3}
 80007c4:	f10d 0e24 	add.w	lr, sp, #36	; 0x24
 80007c8:	f8cd 9080 	str.w	r9, [sp, #128]	; 0x80
 80007cc:	e88e 000f 	stmia.w	lr, {r0, r1, r2, r3}
 80007d0:	4b52      	ldr	r3, [pc, #328]	; (800091c <main+0x628>)
 80007d2:	9306      	str	r3, [sp, #24]
 80007d4:	4b52      	ldr	r3, [pc, #328]	; (8000920 <main+0x62c>)
 80007d6:	4d53      	ldr	r5, [pc, #332]	; (8000924 <main+0x630>)
 80007d8:	f8df 9174 	ldr.w	r9, [pc, #372]	; 8000950 <main+0x65c>
 80007dc:	e9cd 6807 	strd	r6, r8, [sp, #28]
 80007e0:	9305      	str	r3, [sp, #20]
 80007e2:	4b51      	ldr	r3, [pc, #324]	; (8000928 <main+0x634>)
 80007e4:	9304      	str	r3, [sp, #16]
 80007e6:	4b51      	ldr	r3, [pc, #324]	; (800092c <main+0x638>)
 80007e8:	f44f 72a0 	mov.w	r2, #320	; 0x140
 80007ec:	e9cd 4302 	strd	r4, r3, [sp, #8]
 80007f0:	23f0      	movs	r3, #240	; 0xf0
 80007f2:	e9cd 3200 	strd	r3, r2, [sp]
 80007f6:	a92c      	add	r1, sp, #176	; 0xb0
 80007f8:	461a      	mov	r2, r3
 80007fa:	6828      	ldr	r0, [r5, #0]
 80007fc:	f000 f9cc 	bl	8000b98 <LCD_DisplayAdd>
 8000800:	4680      	mov	r8, r0
 8000802:	6028      	str	r0, [r5, #0]
 8000804:	f000 fb2d 	bl	8000e62 <LCD_Init>
 8000808:	4621      	mov	r1, r4
 800080a:	4640      	mov	r0, r8
 800080c:	f000 fd4c 	bl	80012a8 <LCD_Fill>
 8000810:	f10a 0a10 	add.w	sl, sl, #16
 8000814:	4946      	ldr	r1, [pc, #280]	; (8000930 <main+0x63c>)
 8000816:	4847      	ldr	r0, [pc, #284]	; (8000934 <main+0x640>)
 8000818:	4622      	mov	r2, r4
 800081a:	f003 fc07 	bl	800402c <f_mount>
 800081e:	e8ba 000f 	ldmia.w	sl!, {r0, r1, r2, r3}
 8000822:	ad22      	add	r5, sp, #136	; 0x88
 8000824:	c50f      	stmia	r5!, {r0, r1, r2, r3}
 8000826:	e8ba 000f 	ldmia.w	sl!, {r0, r1, r2, r3}
 800082a:	c50f      	stmia	r5!, {r0, r1, r2, r3}
 800082c:	e89a 0003 	ldmia.w	sl, {r0, r1}
 8000830:	e885 0003 	stmia.w	r5, {r0, r1}
 8000834:	f002 f998 	bl	8002b68 <FileManagerNew>
 8000838:	4641      	mov	r1, r8
 800083a:	6c03      	ldr	r3, [r0, #64]	; 0x40
 800083c:	4606      	mov	r6, r0
 800083e:	4798      	blx	r3
 8000840:	f8b8 2006 	ldrh.w	r2, [r8, #6]
 8000844:	f8b8 3004 	ldrh.w	r3, [r8, #4]
 8000848:	9200      	str	r2, [sp, #0]
 800084a:	6c75      	ldr	r5, [r6, #68]	; 0x44
 800084c:	4622      	mov	r2, r4
 800084e:	4621      	mov	r1, r4
 8000850:	4630      	mov	r0, r6
 8000852:	47a8      	blx	r5
 8000854:	6cb3      	ldr	r3, [r6, #72]	; 0x48
 8000856:	a922      	add	r1, sp, #136	; 0x88
 8000858:	4630      	mov	r0, r6
 800085a:	4798      	blx	r3
 800085c:	6cf3      	ldr	r3, [r6, #76]	; 0x4c
 800085e:	4936      	ldr	r1, [pc, #216]	; (8000938 <main+0x644>)
 8000860:	4630      	mov	r0, r6
 8000862:	4798      	blx	r3
 8000864:	6d35      	ldr	r5, [r6, #80]	; 0x50
 8000866:	463a      	mov	r2, r7
 8000868:	2303      	movs	r3, #3
 800086a:	4621      	mov	r1, r4
 800086c:	4630      	mov	r0, r6
 800086e:	47a8      	blx	r5
 8000870:	4f32      	ldr	r7, [pc, #200]	; (800093c <main+0x648>)
 8000872:	4d33      	ldr	r5, [pc, #204]	; (8000940 <main+0x64c>)
 8000874:	2105      	movs	r1, #5
 8000876:	4630      	mov	r0, r6
 8000878:	f002 f9b6 	bl	8002be8 <FileManagerPopupWin>
 800087c:	6db3      	ldr	r3, [r6, #88]	; 0x58
 800087e:	4630      	mov	r0, r6
 8000880:	4798      	blx	r3
 8000882:	6df3      	ldr	r3, [r6, #92]	; 0x5c
 8000884:	4630      	mov	r0, r6
 8000886:	4798      	blx	r3
 8000888:	4604      	mov	r4, r0
 800088a:	2800      	cmp	r0, #0
 800088c:	d136      	bne.n	80008fc <main+0x608>
 800088e:	6e33      	ldr	r3, [r6, #96]	; 0x60
 8000890:	4630      	mov	r0, r6
 8000892:	4798      	blx	r3
 8000894:	6e73      	ldr	r3, [r6, #100]	; 0x64
 8000896:	900f      	str	r0, [sp, #60]	; 0x3c
 8000898:	4630      	mov	r0, r6
 800089a:	4798      	blx	r3
 800089c:	9a0f      	ldr	r2, [sp, #60]	; 0x3c
 800089e:	4603      	mov	r3, r0
 80008a0:	4649      	mov	r1, r9
 80008a2:	2002      	movs	r0, #2
 80008a4:	f003 fe4d 	bl	8004542 <my_strsplice>
 80008a8:	2201      	movs	r2, #1
 80008aa:	4601      	mov	r1, r0
 80008ac:	4628      	mov	r0, r5
 80008ae:	f003 fbe3 	bl	8004078 <f_open>
 80008b2:	6973      	ldr	r3, [r6, #20]
 80008b4:	4602      	mov	r2, r0
 80008b6:	b998      	cbnz	r0, 80008e0 <main+0x5ec>
 80008b8:	9003      	str	r0, [sp, #12]
 80008ba:	68d9      	ldr	r1, [r3, #12]
 80008bc:	9102      	str	r1, [sp, #8]
 80008be:	685b      	ldr	r3, [r3, #4]
 80008c0:	9301      	str	r3, [sp, #4]
 80008c2:	69b3      	ldr	r3, [r6, #24]
 80008c4:	9300      	str	r3, [sp, #0]
 80008c6:	4601      	mov	r1, r0
 80008c8:	4b1e      	ldr	r3, [pc, #120]	; (8000944 <main+0x650>)
 80008ca:	4640      	mov	r0, r8
 80008cc:	f000 feea 	bl	80016a4 <LCD_WriteString>
 80008d0:	4628      	mov	r0, r5
 80008d2:	f003 fcf7 	bl	80042c4 <f_close>
 80008d6:	f002 fa27 	bl	8002d28 <KEYB_Inkeys>
 80008da:	2800      	cmp	r0, #0
 80008dc:	d0fb      	beq.n	80008d6 <main+0x5e2>
 80008de:	e7c9      	b.n	8000874 <main+0x580>
 80008e0:	9403      	str	r4, [sp, #12]
 80008e2:	68da      	ldr	r2, [r3, #12]
 80008e4:	9202      	str	r2, [sp, #8]
 80008e6:	685b      	ldr	r3, [r3, #4]
 80008e8:	9301      	str	r3, [sp, #4]
 80008ea:	69b3      	ldr	r3, [r6, #24]
 80008ec:	9300      	str	r3, [sp, #0]
 80008ee:	4b16      	ldr	r3, [pc, #88]	; (8000948 <main+0x654>)
 80008f0:	4622      	mov	r2, r4
 80008f2:	4611      	mov	r1, r2
 80008f4:	4640      	mov	r0, r8
 80008f6:	f000 fed5 	bl	80016a4 <LCD_WriteString>
 80008fa:	e7ec      	b.n	80008d6 <main+0x5e2>
 80008fc:	6973      	ldr	r3, [r6, #20]
 80008fe:	2200      	movs	r2, #0
 8000900:	9203      	str	r2, [sp, #12]
 8000902:	68d9      	ldr	r1, [r3, #12]
 8000904:	9102      	str	r1, [sp, #8]
 8000906:	685b      	ldr	r3, [r3, #4]
 8000908:	9301      	str	r3, [sp, #4]
 800090a:	69b3      	ldr	r3, [r6, #24]
 800090c:	9300      	str	r3, [sp, #0]
 800090e:	463b      	mov	r3, r7
 8000910:	e7ef      	b.n	80008f2 <main+0x5fe>
 8000912:	bf00      	nop
 8000914:	40014400 	.word	0x40014400
 8000918:	40013000 	.word	0x40013000
 800091c:	08001759 	.word	0x08001759
 8000920:	08001751 	.word	0x08001751
 8000924:	20000128 	.word	0x20000128
 8000928:	0800172d 	.word	0x0800172d
 800092c:	0800170d 	.word	0x0800170d
 8000930:	20000590 	.word	0x20000590
 8000934:	20000130 	.word	0x20000130
 8000938:	20000004 	.word	0x20000004
 800093c:	080049ff 	.word	0x080049ff
 8000940:	20000364 	.word	0x20000364
 8000944:	080049d2 	.word	0x080049d2
 8000948:	080049eb 	.word	0x080049eb
 800094c:	08004990 	.word	0x08004990
 8000950:	080049d0 	.word	0x080049d0

08000954 <HAL_MspInit>:
 8000954:	b082      	sub	sp, #8
 8000956:	4b0c      	ldr	r3, [pc, #48]	; (8000988 <HAL_MspInit+0x34>)
 8000958:	2100      	movs	r1, #0
 800095a:	9100      	str	r1, [sp, #0]
 800095c:	6c5a      	ldr	r2, [r3, #68]	; 0x44
 800095e:	f442 4280 	orr.w	r2, r2, #16384	; 0x4000
 8000962:	645a      	str	r2, [r3, #68]	; 0x44
 8000964:	6c5a      	ldr	r2, [r3, #68]	; 0x44
 8000966:	f402 4280 	and.w	r2, r2, #16384	; 0x4000
 800096a:	9200      	str	r2, [sp, #0]
 800096c:	9a00      	ldr	r2, [sp, #0]
 800096e:	9101      	str	r1, [sp, #4]
 8000970:	6c1a      	ldr	r2, [r3, #64]	; 0x40
 8000972:	f042 5280 	orr.w	r2, r2, #268435456	; 0x10000000
 8000976:	641a      	str	r2, [r3, #64]	; 0x40
 8000978:	6c1b      	ldr	r3, [r3, #64]	; 0x40
 800097a:	f003 5380 	and.w	r3, r3, #268435456	; 0x10000000
 800097e:	9301      	str	r3, [sp, #4]
 8000980:	9b01      	ldr	r3, [sp, #4]
 8000982:	b002      	add	sp, #8
 8000984:	4770      	bx	lr
 8000986:	bf00      	nop
 8000988:	40023800 	.word	0x40023800

0800098c <NMI_Handler>:
 800098c:	e7fe      	b.n	800098c <NMI_Handler>

0800098e <HardFault_Handler>:
 800098e:	e7fe      	b.n	800098e <HardFault_Handler>

08000990 <MemManage_Handler>:
 8000990:	e7fe      	b.n	8000990 <MemManage_Handler>

08000992 <BusFault_Handler>:
 8000992:	e7fe      	b.n	8000992 <BusFault_Handler>

08000994 <UsageFault_Handler>:
 8000994:	e7fe      	b.n	8000994 <UsageFault_Handler>

08000996 <SVC_Handler>:
 8000996:	4770      	bx	lr

08000998 <DebugMon_Handler>:
 8000998:	4770      	bx	lr

0800099a <PendSV_Handler>:
 800099a:	4770      	bx	lr

0800099c <SysTick_Handler>:
 800099c:	f000 bf1e 	b.w	80017dc <HAL_IncTick>

080009a0 <DMA1_Stream3_IRQHandler>:
 80009a0:	4770      	bx	lr

080009a2 <DMA1_Stream4_IRQHandler>:
 80009a2:	4770      	bx	lr

080009a4 <TIM1_UP_TIM10_IRQHandler>:
 80009a4:	4b02      	ldr	r3, [pc, #8]	; (80009b0 <TIM1_UP_TIM10_IRQHandler+0xc>)
 80009a6:	f06f 0201 	mvn.w	r2, #1
 80009aa:	611a      	str	r2, [r3, #16]
 80009ac:	f002 b9e6 	b.w	8002d7c <KEYB_Input_Keys>
 80009b0:	40014400 	.word	0x40014400

080009b4 <DMA2_Stream3_IRQHandler>:
 80009b4:	4801      	ldr	r0, [pc, #4]	; (80009bc <DMA2_Stream3_IRQHandler+0x8>)
 80009b6:	2103      	movs	r1, #3
 80009b8:	f000 b868 	b.w	8000a8c <Display_TC_Callback>
 80009bc:	40026400 	.word	0x40026400

080009c0 <_sbrk>:
 80009c0:	4a0b      	ldr	r2, [pc, #44]	; (80009f0 <_sbrk+0x30>)
 80009c2:	6811      	ldr	r1, [r2, #0]
 80009c4:	b510      	push	{r4, lr}
 80009c6:	4603      	mov	r3, r0
 80009c8:	b909      	cbnz	r1, 80009ce <_sbrk+0xe>
 80009ca:	490a      	ldr	r1, [pc, #40]	; (80009f4 <_sbrk+0x34>)
 80009cc:	6011      	str	r1, [r2, #0]
 80009ce:	6810      	ldr	r0, [r2, #0]
 80009d0:	4909      	ldr	r1, [pc, #36]	; (80009f8 <_sbrk+0x38>)
 80009d2:	4c0a      	ldr	r4, [pc, #40]	; (80009fc <_sbrk+0x3c>)
 80009d4:	4403      	add	r3, r0
 80009d6:	1b09      	subs	r1, r1, r4
 80009d8:	428b      	cmp	r3, r1
 80009da:	d906      	bls.n	80009ea <_sbrk+0x2a>
 80009dc:	f003 ff3e 	bl	800485c <__errno>
 80009e0:	230c      	movs	r3, #12
 80009e2:	6003      	str	r3, [r0, #0]
 80009e4:	f04f 30ff 	mov.w	r0, #4294967295
 80009e8:	bd10      	pop	{r4, pc}
 80009ea:	6013      	str	r3, [r2, #0]
 80009ec:	e7fc      	b.n	80009e8 <_sbrk+0x28>
 80009ee:	bf00      	nop
 80009f0:	20000124 	.word	0x20000124
 80009f4:	20000960 	.word	0x20000960
 80009f8:	20010000 	.word	0x20010000
 80009fc:	00000400 	.word	0x00000400

08000a00 <SystemInit>:
 8000a00:	4a03      	ldr	r2, [pc, #12]	; (8000a10 <SystemInit+0x10>)
 8000a02:	f8d2 3088 	ldr.w	r3, [r2, #136]	; 0x88
 8000a06:	f443 0370 	orr.w	r3, r3, #15728640	; 0xf00000
 8000a0a:	f8c2 3088 	str.w	r3, [r2, #136]	; 0x88
 8000a0e:	4770      	bx	lr
 8000a10:	e000ed00 	.word	0xe000ed00

08000a14 <Reset_Handler>:
 8000a14:	f8df d034 	ldr.w	sp, [pc, #52]	; 8000a4c <LoopFillZerobss+0x12>
 8000a18:	480d      	ldr	r0, [pc, #52]	; (8000a50 <LoopFillZerobss+0x16>)
 8000a1a:	490e      	ldr	r1, [pc, #56]	; (8000a54 <LoopFillZerobss+0x1a>)
 8000a1c:	4a0e      	ldr	r2, [pc, #56]	; (8000a58 <LoopFillZerobss+0x1e>)
 8000a1e:	2300      	movs	r3, #0
 8000a20:	e002      	b.n	8000a28 <LoopCopyDataInit>

08000a22 <CopyDataInit>:
 8000a22:	58d4      	ldr	r4, [r2, r3]
 8000a24:	50c4      	str	r4, [r0, r3]
 8000a26:	3304      	adds	r3, #4

08000a28 <LoopCopyDataInit>:
 8000a28:	18c4      	adds	r4, r0, r3
 8000a2a:	428c      	cmp	r4, r1
 8000a2c:	d3f9      	bcc.n	8000a22 <CopyDataInit>
 8000a2e:	4a0b      	ldr	r2, [pc, #44]	; (8000a5c <LoopFillZerobss+0x22>)
 8000a30:	4c0b      	ldr	r4, [pc, #44]	; (8000a60 <LoopFillZerobss+0x26>)
 8000a32:	2300      	movs	r3, #0
 8000a34:	e001      	b.n	8000a3a <LoopFillZerobss>

08000a36 <FillZerobss>:
 8000a36:	6013      	str	r3, [r2, #0]
 8000a38:	3204      	adds	r2, #4

08000a3a <LoopFillZerobss>:
 8000a3a:	42a2      	cmp	r2, r4
 8000a3c:	d3fb      	bcc.n	8000a36 <FillZerobss>
 8000a3e:	f7ff ffdf 	bl	8000a00 <SystemInit>
 8000a42:	f003 ff11 	bl	8004868 <__libc_init_array>
 8000a46:	f7ff fc55 	bl	80002f4 <main>
 8000a4a:	4770      	bx	lr
 8000a4c:	20010000 	.word	0x20010000
 8000a50:	20000000 	.word	0x20000000
 8000a54:	20000108 	.word	0x20000108
 8000a58:	08008148 	.word	0x08008148
 8000a5c:	20000108 	.word	0x20000108
 8000a60:	2000095c 	.word	0x2000095c

08000a64 <ADC_IRQHandler>:
 8000a64:	e7fe      	b.n	8000a64 <ADC_IRQHandler>

08000a66 <LCD_WRITE_DC>:
 8000a66:	b530      	push	{r4, r5, lr}
 8000a68:	8f83      	ldrh	r3, [r0, #60]	; 0x3c
 8000a6a:	6a44      	ldr	r4, [r0, #36]	; 0x24
 8000a6c:	6b85      	ldr	r5, [r0, #56]	; 0x38
 8000a6e:	b902      	cbnz	r2, 8000a72 <LCD_WRITE_DC+0xc>
 8000a70:	041b      	lsls	r3, r3, #16
 8000a72:	61ab      	str	r3, [r5, #24]
 8000a74:	60e1      	str	r1, [r4, #12]
 8000a76:	68a3      	ldr	r3, [r4, #8]
 8000a78:	079a      	lsls	r2, r3, #30
 8000a7a:	d503      	bpl.n	8000a84 <LCD_WRITE_DC+0x1e>
 8000a7c:	68a3      	ldr	r3, [r4, #8]
 8000a7e:	061b      	lsls	r3, r3, #24
 8000a80:	d402      	bmi.n	8000a88 <LCD_WRITE_DC+0x22>
 8000a82:	bd30      	pop	{r4, r5, pc}
 8000a84:	bf00      	nop
 8000a86:	e7f6      	b.n	8000a76 <LCD_WRITE_DC+0x10>
 8000a88:	bf00      	nop
 8000a8a:	e7f7      	b.n	8000a7c <LCD_WRITE_DC+0x16>

08000a8c <Display_TC_Callback>:
 8000a8c:	b537      	push	{r0, r1, r2, r4, r5, lr}
 8000a8e:	460c      	mov	r4, r1
 8000a90:	4931      	ldr	r1, [pc, #196]	; (8000b58 <Display_TC_Callback+0xcc>)
 8000a92:	4602      	mov	r2, r0
 8000a94:	6808      	ldr	r0, [r1, #0]
 8000a96:	6849      	ldr	r1, [r1, #4]
 8000a98:	466b      	mov	r3, sp
 8000a9a:	c303      	stmia	r3!, {r0, r1}
 8000a9c:	f104 0308 	add.w	r3, r4, #8
 8000aa0:	446b      	add	r3, sp
 8000aa2:	2c03      	cmp	r4, #3
 8000aa4:	f813 0c08 	ldrb.w	r0, [r3, #-8]
 8000aa8:	bf8c      	ite	hi
 8000aaa:	f102 010c 	addhi.w	r1, r2, #12
 8000aae:	f102 0108 	addls.w	r1, r2, #8
 8000ab2:	233f      	movs	r3, #63	; 0x3f
 8000ab4:	4083      	lsls	r3, r0
 8000ab6:	600b      	str	r3, [r1, #0]
 8000ab8:	4b28      	ldr	r3, [pc, #160]	; (8000b5c <Display_TC_Callback+0xd0>)
 8000aba:	681b      	ldr	r3, [r3, #0]
 8000abc:	2b00      	cmp	r3, #0
 8000abe:	d02e      	beq.n	8000b1e <Display_TC_Callback+0x92>
 8000ac0:	6a99      	ldr	r1, [r3, #40]	; 0x28
 8000ac2:	428a      	cmp	r2, r1
 8000ac4:	d109      	bne.n	8000ada <Display_TC_Callback+0x4e>
 8000ac6:	6ad9      	ldr	r1, [r3, #44]	; 0x2c
 8000ac8:	428c      	cmp	r4, r1
 8000aca:	d106      	bne.n	8000ada <Display_TC_Callback+0x4e>
 8000acc:	6c19      	ldr	r1, [r3, #64]	; 0x40
 8000ace:	b139      	cbz	r1, 8000ae0 <Display_TC_Callback+0x54>
 8000ad0:	6949      	ldr	r1, [r1, #20]
 8000ad2:	f8b3 0044 	ldrh.w	r0, [r3, #68]	; 0x44
 8000ad6:	4208      	tst	r0, r1
 8000ad8:	d002      	beq.n	8000ae0 <Display_TC_Callback+0x54>
 8000ada:	f8d3 364c 	ldr.w	r3, [r3, #1612]	; 0x64c
 8000ade:	e7ed      	b.n	8000abc <Display_TC_Callback+0x30>
 8000ae0:	491f      	ldr	r1, [pc, #124]	; (8000b60 <Display_TC_Callback+0xd4>)
 8000ae2:	5d08      	ldrb	r0, [r1, r4]
 8000ae4:	5811      	ldr	r1, [r2, r0]
 8000ae6:	f021 0101 	bic.w	r1, r1, #1
 8000aea:	5011      	str	r1, [r2, r0]
 8000aec:	1815      	adds	r5, r2, r0
 8000aee:	6829      	ldr	r1, [r5, #0]
 8000af0:	f011 0101 	ands.w	r1, r1, #1
 8000af4:	d115      	bne.n	8000b22 <Display_TC_Callback+0x96>
 8000af6:	f8d3 463c 	ldr.w	r4, [r3, #1596]	; 0x63c
 8000afa:	b1a4      	cbz	r4, 8000b26 <Display_TC_Callback+0x9a>
 8000afc:	f5b4 3f80 	cmp.w	r4, #65536	; 0x10000
 8000b00:	bf23      	ittte	cs
 8000b02:	f64f 71ff 	movwcs	r1, #65535	; 0xffff
 8000b06:	6069      	strcs	r1, [r5, #4]
 8000b08:	f5a4 417f 	subcs.w	r1, r4, #65280	; 0xff00
 8000b0c:	606c      	strcc	r4, [r5, #4]
 8000b0e:	bf28      	it	cs
 8000b10:	39ff      	subcs	r1, #255	; 0xff
 8000b12:	f8c3 163c 	str.w	r1, [r3, #1596]	; 0x63c
 8000b16:	5813      	ldr	r3, [r2, r0]
 8000b18:	f043 0301 	orr.w	r3, r3, #1
 8000b1c:	5013      	str	r3, [r2, r0]
 8000b1e:	b003      	add	sp, #12
 8000b20:	bd30      	pop	{r4, r5, pc}
 8000b22:	bf00      	nop
 8000b24:	e7e3      	b.n	8000aee <Display_TC_Callback+0x62>
 8000b26:	6a59      	ldr	r1, [r3, #36]	; 0x24
 8000b28:	684a      	ldr	r2, [r1, #4]
 8000b2a:	f022 0202 	bic.w	r2, r2, #2
 8000b2e:	604a      	str	r2, [r1, #4]
 8000b30:	6a5a      	ldr	r2, [r3, #36]	; 0x24
 8000b32:	6891      	ldr	r1, [r2, #8]
 8000b34:	0609      	lsls	r1, r1, #24
 8000b36:	d40c      	bmi.n	8000b52 <Display_TC_Callback+0xc6>
 8000b38:	f893 1641 	ldrb.w	r1, [r3, #1601]	; 0x641
 8000b3c:	b921      	cbnz	r1, 8000b48 <Display_TC_Callback+0xbc>
 8000b3e:	6c19      	ldr	r1, [r3, #64]	; 0x40
 8000b40:	b111      	cbz	r1, 8000b48 <Display_TC_Callback+0xbc>
 8000b42:	f8b3 3044 	ldrh.w	r3, [r3, #68]	; 0x44
 8000b46:	618b      	str	r3, [r1, #24]
 8000b48:	6813      	ldr	r3, [r2, #0]
 8000b4a:	f023 0340 	bic.w	r3, r3, #64	; 0x40
 8000b4e:	6013      	str	r3, [r2, #0]
 8000b50:	e7e5      	b.n	8000b1e <Display_TC_Callback+0x92>
 8000b52:	bf00      	nop
 8000b54:	e7ec      	b.n	8000b30 <Display_TC_Callback+0xa4>
 8000b56:	bf00      	nop
 8000b58:	080049c8 	.word	0x080049c8
 8000b5c:	20000128 	.word	0x20000128
 8000b60:	08004a12 	.word	0x08004a12

08000b64 <LCD_HardWareReset>:
 8000b64:	6b02      	ldr	r2, [r0, #48]	; 0x30
 8000b66:	b510      	push	{r4, lr}
 8000b68:	4604      	mov	r4, r0
 8000b6a:	b16a      	cbz	r2, 8000b88 <LCD_HardWareReset+0x24>
 8000b6c:	8e83      	ldrh	r3, [r0, #52]	; 0x34
 8000b6e:	041b      	lsls	r3, r3, #16
 8000b70:	6193      	str	r3, [r2, #24]
 8000b72:	2019      	movs	r0, #25
 8000b74:	f001 f878 	bl	8001c68 <LL_mDelay>
 8000b78:	6b23      	ldr	r3, [r4, #48]	; 0x30
 8000b7a:	8ea2      	ldrh	r2, [r4, #52]	; 0x34
 8000b7c:	619a      	str	r2, [r3, #24]
 8000b7e:	e8bd 4010 	ldmia.w	sp!, {r4, lr}
 8000b82:	2019      	movs	r0, #25
 8000b84:	f001 b870 	b.w	8001c68 <LL_mDelay>
 8000b88:	bd10      	pop	{r4, pc}

08000b8a <LCD_Delete>:
 8000b8a:	b120      	cbz	r0, 8000b96 <LCD_Delete+0xc>
 8000b8c:	f44f 62ca 	mov.w	r2, #1616	; 0x650
 8000b90:	2100      	movs	r1, #0
 8000b92:	f003 be34 	b.w	80047fe <memset>
 8000b96:	4770      	bx	lr

08000b98 <LCD_DisplayAdd>:
 8000b98:	e92d 4ff8 	stmdb	sp!, {r3, r4, r5, r6, r7, r8, r9, sl, fp, lr}
 8000b9c:	f8dd b034 	ldr.w	fp, [sp, #52]	; 0x34
 8000ba0:	f8bd 7028 	ldrh.w	r7, [sp, #40]	; 0x28
 8000ba4:	f8bd 602c 	ldrh.w	r6, [sp, #44]	; 0x2c
 8000ba8:	f89d 9030 	ldrb.w	r9, [sp, #48]	; 0x30
 8000bac:	4680      	mov	r8, r0
 8000bae:	4692      	mov	sl, r2
 8000bb0:	461d      	mov	r5, r3
 8000bb2:	460c      	mov	r4, r1
 8000bb4:	2900      	cmp	r1, #0
 8000bb6:	f000 80b5 	beq.w	8000d24 <LCD_DisplayAdd+0x18c>
 8000bba:	f44f 62ca 	mov.w	r2, #1616	; 0x650
 8000bbe:	2100      	movs	r1, #0
 8000bc0:	4620      	mov	r0, r4
 8000bc2:	f003 fe1c 	bl	80047fe <memset>
 8000bc6:	f89d 3048 	ldrb.w	r3, [sp, #72]	; 0x48
 8000bca:	f8dd e044 	ldr.w	lr, [sp, #68]	; 0x44
 8000bce:	f884 3048 	strb.w	r3, [r4, #72]	; 0x48
 8000bd2:	e8be 000f 	ldmia.w	lr!, {r0, r1, r2, r3}
 8000bd6:	f104 0c24 	add.w	ip, r4, #36	; 0x24
 8000bda:	e8ac 000f 	stmia.w	ip!, {r0, r1, r2, r3}
 8000bde:	e8be 000f 	ldmia.w	lr!, {r0, r1, r2, r3}
 8000be2:	e8ac 000f 	stmia.w	ip!, {r0, r1, r2, r3}
 8000be6:	f8de 3000 	ldr.w	r3, [lr]
 8000bea:	f8cc 3000 	str.w	r3, [ip]
 8000bee:	6aa3      	ldr	r3, [r4, #40]	; 0x28
 8000bf0:	2b00      	cmp	r3, #0
 8000bf2:	d02a      	beq.n	8000c4a <LCD_DisplayAdd+0xb2>
 8000bf4:	6ae2      	ldr	r2, [r4, #44]	; 0x2c
 8000bf6:	4952      	ldr	r1, [pc, #328]	; (8000d40 <LCD_DisplayAdd+0x1a8>)
 8000bf8:	5c8a      	ldrb	r2, [r1, r2]
 8000bfa:	5899      	ldr	r1, [r3, r2]
 8000bfc:	f021 0101 	bic.w	r1, r1, #1
 8000c00:	5099      	str	r1, [r3, r2]
 8000c02:	1898      	adds	r0, r3, r2
 8000c04:	6801      	ldr	r1, [r0, #0]
 8000c06:	07c9      	lsls	r1, r1, #31
 8000c08:	d463      	bmi.n	8000cd2 <LCD_DisplayAdd+0x13a>
 8000c0a:	f894 1048 	ldrb.w	r1, [r4, #72]	; 0x48
 8000c0e:	2901      	cmp	r1, #1
 8000c10:	d161      	bne.n	8000cd6 <LCD_DisplayAdd+0x13e>
 8000c12:	5899      	ldr	r1, [r3, r2]
 8000c14:	f421 41f0 	bic.w	r1, r1, #30720	; 0x7800
 8000c18:	5099      	str	r1, [r3, r2]
 8000c1a:	5899      	ldr	r1, [r3, r2]
 8000c1c:	5099      	str	r1, [r3, r2]
 8000c1e:	5899      	ldr	r1, [r3, r2]
 8000c20:	f421 2180 	bic.w	r1, r1, #262144	; 0x40000
 8000c24:	f021 010e 	bic.w	r1, r1, #14
 8000c28:	5099      	str	r1, [r3, r2]
 8000c2a:	6941      	ldr	r1, [r0, #20]
 8000c2c:	f021 0180 	bic.w	r1, r1, #128	; 0x80
 8000c30:	6141      	str	r1, [r0, #20]
 8000c32:	5899      	ldr	r1, [r3, r2]
 8000c34:	f041 0110 	orr.w	r1, r1, #16
 8000c38:	5099      	str	r1, [r3, r2]
 8000c3a:	5899      	ldr	r1, [r3, r2]
 8000c3c:	f421 7100 	bic.w	r1, r1, #512	; 0x200
 8000c40:	5099      	str	r1, [r3, r2]
 8000c42:	5899      	ldr	r1, [r3, r2]
 8000c44:	f441 6180 	orr.w	r1, r1, #1024	; 0x400
 8000c48:	5099      	str	r1, [r3, r2]
 8000c4a:	4555      	cmp	r5, sl
 8000c4c:	462b      	mov	r3, r5
 8000c4e:	bf38      	it	cc
 8000c50:	4653      	movcc	r3, sl
 8000c52:	4555      	cmp	r5, sl
 8000c54:	bf28      	it	cs
 8000c56:	4655      	movcs	r5, sl
 8000c58:	f019 02fd 	ands.w	r2, r9, #253	; 0xfd
 8000c5c:	d145      	bne.n	8000cea <LCD_DisplayAdd+0x152>
 8000c5e:	f1b9 0f00 	cmp.w	r9, #0
 8000c62:	d062      	beq.n	8000d2a <LCD_DisplayAdd+0x192>
 8000c64:	1b79      	subs	r1, r7, r5
 8000c66:	1af2      	subs	r2, r6, r3
 8000c68:	b209      	sxth	r1, r1
 8000c6a:	b212      	sxth	r2, r2
 8000c6c:	42af      	cmp	r7, r5
 8000c6e:	80a5      	strh	r5, [r4, #4]
 8000c70:	80e3      	strh	r3, [r4, #6]
 8000c72:	8027      	strh	r7, [r4, #0]
 8000c74:	8066      	strh	r6, [r4, #2]
 8000c76:	8161      	strh	r1, [r4, #10]
 8000c78:	81a2      	strh	r2, [r4, #12]
 8000c7a:	d34f      	bcc.n	8000d1c <LCD_DisplayAdd+0x184>
 8000c7c:	42b3      	cmp	r3, r6
 8000c7e:	d84d      	bhi.n	8000d1c <LCD_DisplayAdd+0x184>
 8000c80:	f1bb 0f00 	cmp.w	fp, #0
 8000c84:	d04a      	beq.n	8000d1c <LCD_DisplayAdd+0x184>
 8000c86:	9b0e      	ldr	r3, [sp, #56]	; 0x38
 8000c88:	2b00      	cmp	r3, #0
 8000c8a:	d047      	beq.n	8000d1c <LCD_DisplayAdd+0x184>
 8000c8c:	e9c4 b305 	strd	fp, r3, [r4, #20]
 8000c90:	9b0f      	ldr	r3, [sp, #60]	; 0x3c
 8000c92:	61e3      	str	r3, [r4, #28]
 8000c94:	9b10      	ldr	r3, [sp, #64]	; 0x40
 8000c96:	6223      	str	r3, [r4, #32]
 8000c98:	ab13      	add	r3, sp, #76	; 0x4c
 8000c9a:	cb0f      	ldmia	r3, {r0, r1, r2, r3}
 8000c9c:	f104 054c 	add.w	r5, r4, #76	; 0x4c
 8000ca0:	f884 9008 	strb.w	r9, [r4, #8]
 8000ca4:	e885 000f 	stmia.w	r5, {r0, r1, r2, r3}
 8000ca8:	2300      	movs	r3, #0
 8000caa:	f884 3640 	strb.w	r3, [r4, #1600]	; 0x640
 8000cae:	f8c4 364c 	str.w	r3, [r4, #1612]	; 0x64c
 8000cb2:	f8c4 3648 	str.w	r3, [r4, #1608]	; 0x648
 8000cb6:	f104 0360 	add.w	r3, r4, #96	; 0x60
 8000cba:	65e3      	str	r3, [r4, #92]	; 0x5c
 8000cbc:	f1b8 0f00 	cmp.w	r8, #0
 8000cc0:	d030      	beq.n	8000d24 <LCD_DisplayAdd+0x18c>
 8000cc2:	f8d8 264c 	ldr.w	r2, [r8, #1612]	; 0x64c
 8000cc6:	bb9a      	cbnz	r2, 8000d30 <LCD_DisplayAdd+0x198>
 8000cc8:	f8c4 8648 	str.w	r8, [r4, #1608]	; 0x648
 8000ccc:	f8c8 464c 	str.w	r4, [r8, #1612]	; 0x64c
 8000cd0:	e028      	b.n	8000d24 <LCD_DisplayAdd+0x18c>
 8000cd2:	bf00      	nop
 8000cd4:	e796      	b.n	8000c04 <LCD_DisplayAdd+0x6c>
 8000cd6:	2902      	cmp	r1, #2
 8000cd8:	d1a1      	bne.n	8000c1e <LCD_DisplayAdd+0x86>
 8000cda:	5899      	ldr	r1, [r3, r2]
 8000cdc:	f421 41f0 	bic.w	r1, r1, #30720	; 0x7800
 8000ce0:	5099      	str	r1, [r3, r2]
 8000ce2:	5899      	ldr	r1, [r3, r2]
 8000ce4:	f441 5120 	orr.w	r1, r1, #10240	; 0x2800
 8000ce8:	e798      	b.n	8000c1c <LCD_DisplayAdd+0x84>
 8000cea:	2a01      	cmp	r2, #1
 8000cec:	d116      	bne.n	8000d1c <LCD_DisplayAdd+0x184>
 8000cee:	f1b9 0f01 	cmp.w	r9, #1
 8000cf2:	d109      	bne.n	8000d08 <LCD_DisplayAdd+0x170>
 8000cf4:	4619      	mov	r1, r3
 8000cf6:	1b7a      	subs	r2, r7, r5
 8000cf8:	462b      	mov	r3, r5
 8000cfa:	460d      	mov	r5, r1
 8000cfc:	4631      	mov	r1, r6
 8000cfe:	b212      	sxth	r2, r2
 8000d00:	463e      	mov	r6, r7
 8000d02:	460f      	mov	r7, r1
 8000d04:	2100      	movs	r1, #0
 8000d06:	e7b1      	b.n	8000c6c <LCD_DisplayAdd+0xd4>
 8000d08:	461a      	mov	r2, r3
 8000d0a:	1af1      	subs	r1, r6, r3
 8000d0c:	462b      	mov	r3, r5
 8000d0e:	4615      	mov	r5, r2
 8000d10:	4632      	mov	r2, r6
 8000d12:	b209      	sxth	r1, r1
 8000d14:	463e      	mov	r6, r7
 8000d16:	4617      	mov	r7, r2
 8000d18:	2200      	movs	r2, #0
 8000d1a:	e7a7      	b.n	8000c6c <LCD_DisplayAdd+0xd4>
 8000d1c:	4620      	mov	r0, r4
 8000d1e:	f7ff ff34 	bl	8000b8a <LCD_Delete>
 8000d22:	2400      	movs	r4, #0
 8000d24:	4620      	mov	r0, r4
 8000d26:	e8bd 8ff8 	ldmia.w	sp!, {r3, r4, r5, r6, r7, r8, r9, sl, fp, pc}
 8000d2a:	4649      	mov	r1, r9
 8000d2c:	464a      	mov	r2, r9
 8000d2e:	e79d      	b.n	8000c6c <LCD_DisplayAdd+0xd4>
 8000d30:	f894 3640 	ldrb.w	r3, [r4, #1600]	; 0x640
 8000d34:	3301      	adds	r3, #1
 8000d36:	f884 3640 	strb.w	r3, [r4, #1600]	; 0x640
 8000d3a:	4690      	mov	r8, r2
 8000d3c:	e7c1      	b.n	8000cc2 <LCD_DisplayAdd+0x12a>
 8000d3e:	bf00      	nop
 8000d40:	08004a12 	.word	0x08004a12

08000d44 <LCD_GetState>:
 8000d44:	6a43      	ldr	r3, [r0, #36]	; 0x24
 8000d46:	6818      	ldr	r0, [r3, #0]
 8000d48:	f3c0 1080 	ubfx	r0, r0, #6, #1
 8000d4c:	4770      	bx	lr

08000d4e <LCD_String_Interpretator>:
 8000d4e:	e92d 43f8 	stmdb	sp!, {r3, r4, r5, r6, r7, r8, r9, lr}
 8000d52:	6a46      	ldr	r6, [r0, #36]	; 0x24
 8000d54:	4605      	mov	r5, r0
 8000d56:	460c      	mov	r4, r1
 8000d58:	4628      	mov	r0, r5
 8000d5a:	f7ff fff3 	bl	8000d44 <LCD_GetState>
 8000d5e:	2801      	cmp	r0, #1
 8000d60:	d022      	beq.n	8000da8 <LCD_String_Interpretator+0x5a>
 8000d62:	6c2a      	ldr	r2, [r5, #64]	; 0x40
 8000d64:	b11a      	cbz	r2, 8000d6e <LCD_String_Interpretator+0x20>
 8000d66:	f8b5 3044 	ldrh.w	r3, [r5, #68]	; 0x44
 8000d6a:	041b      	lsls	r3, r3, #16
 8000d6c:	6193      	str	r3, [r2, #24]
 8000d6e:	6833      	ldr	r3, [r6, #0]
 8000d70:	f423 432c 	bic.w	r3, r3, #44032	; 0xac00
 8000d74:	6033      	str	r3, [r6, #0]
 8000d76:	6833      	ldr	r3, [r6, #0]
 8000d78:	f043 0340 	orr.w	r3, r3, #64	; 0x40
 8000d7c:	6033      	str	r3, [r6, #0]
 8000d7e:	7822      	ldrb	r2, [r4, #0]
 8000d80:	2a01      	cmp	r2, #1
 8000d82:	d019      	beq.n	8000db8 <LCD_String_Interpretator+0x6a>
 8000d84:	2a02      	cmp	r2, #2
 8000d86:	d026      	beq.n	8000dd6 <LCD_String_Interpretator+0x88>
 8000d88:	bb5a      	cbnz	r2, 8000de2 <LCD_String_Interpretator+0x94>
 8000d8a:	7861      	ldrb	r1, [r4, #1]
 8000d8c:	4628      	mov	r0, r5
 8000d8e:	f7ff fe6a 	bl	8000a66 <LCD_WRITE_DC>
 8000d92:	f104 0903 	add.w	r9, r4, #3
 8000d96:	f814 8f02 	ldrb.w	r8, [r4, #2]!
 8000d9a:	4647      	mov	r7, r8
 8000d9c:	f814 1f01 	ldrb.w	r1, [r4, #1]!
 8000da0:	b927      	cbnz	r7, 8000dac <LCD_String_Interpretator+0x5e>
 8000da2:	eb09 0408 	add.w	r4, r9, r8
 8000da6:	e7ea      	b.n	8000d7e <LCD_String_Interpretator+0x30>
 8000da8:	bf00      	nop
 8000daa:	e7d5      	b.n	8000d58 <LCD_String_Interpretator+0xa>
 8000dac:	2201      	movs	r2, #1
 8000dae:	4628      	mov	r0, r5
 8000db0:	f7ff fe59 	bl	8000a66 <LCD_WRITE_DC>
 8000db4:	3f01      	subs	r7, #1
 8000db6:	e7f1      	b.n	8000d9c <LCD_String_Interpretator+0x4e>
 8000db8:	f104 0902 	add.w	r9, r4, #2
 8000dbc:	f814 8f01 	ldrb.w	r8, [r4, #1]!
 8000dc0:	4647      	mov	r7, r8
 8000dc2:	f814 1f01 	ldrb.w	r1, [r4, #1]!
 8000dc6:	2f00      	cmp	r7, #0
 8000dc8:	d0eb      	beq.n	8000da2 <LCD_String_Interpretator+0x54>
 8000dca:	2201      	movs	r2, #1
 8000dcc:	4628      	mov	r0, r5
 8000dce:	f7ff fe4a 	bl	8000a66 <LCD_WRITE_DC>
 8000dd2:	3f01      	subs	r7, #1
 8000dd4:	e7f5      	b.n	8000dc2 <LCD_String_Interpretator+0x74>
 8000dd6:	7860      	ldrb	r0, [r4, #1]
 8000dd8:	1ca7      	adds	r7, r4, #2
 8000dda:	f000 ff45 	bl	8001c68 <LL_mDelay>
 8000dde:	463c      	mov	r4, r7
 8000de0:	e7cd      	b.n	8000d7e <LCD_String_Interpretator+0x30>
 8000de2:	6c2b      	ldr	r3, [r5, #64]	; 0x40
 8000de4:	b113      	cbz	r3, 8000dec <LCD_String_Interpretator+0x9e>
 8000de6:	f8b5 2044 	ldrh.w	r2, [r5, #68]	; 0x44
 8000dea:	619a      	str	r2, [r3, #24]
 8000dec:	6833      	ldr	r3, [r6, #0]
 8000dee:	f023 0340 	bic.w	r3, r3, #64	; 0x40
 8000df2:	6033      	str	r3, [r6, #0]
 8000df4:	e8bd 83f8 	ldmia.w	sp!, {r3, r4, r5, r6, r7, r8, r9, pc}

08000df8 <LCD_SetBackLight>:
 8000df8:	2964      	cmp	r1, #100	; 0x64
 8000dfa:	6cc3      	ldr	r3, [r0, #76]	; 0x4c
 8000dfc:	460a      	mov	r2, r1
 8000dfe:	bf28      	it	cs
 8000e00:	2264      	movcs	r2, #100	; 0x64
 8000e02:	f880 205a 	strb.w	r2, [r0, #90]	; 0x5a
 8000e06:	b31b      	cbz	r3, 8000e50 <LCD_SetBackLight+0x58>
 8000e08:	6ad9      	ldr	r1, [r3, #44]	; 0x2c
 8000e0a:	434a      	muls	r2, r1
 8000e0c:	2164      	movs	r1, #100	; 0x64
 8000e0e:	fbb2 f2f1 	udiv	r2, r2, r1
 8000e12:	6d01      	ldr	r1, [r0, #80]	; 0x50
 8000e14:	f5b1 7f80 	cmp.w	r1, #256	; 0x100
 8000e18:	d018      	beq.n	8000e4c <LCD_SetBackLight+0x54>
 8000e1a:	d80e      	bhi.n	8000e3a <LCD_SetBackLight+0x42>
 8000e1c:	2901      	cmp	r1, #1
 8000e1e:	d011      	beq.n	8000e44 <LCD_SetBackLight+0x4c>
 8000e20:	2910      	cmp	r1, #16
 8000e22:	d011      	beq.n	8000e48 <LCD_SetBackLight+0x50>
 8000e24:	681a      	ldr	r2, [r3, #0]
 8000e26:	07d2      	lsls	r2, r2, #31
 8000e28:	d418      	bmi.n	8000e5c <LCD_SetBackLight+0x64>
 8000e2a:	6a1a      	ldr	r2, [r3, #32]
 8000e2c:	4311      	orrs	r1, r2
 8000e2e:	6219      	str	r1, [r3, #32]
 8000e30:	681a      	ldr	r2, [r3, #0]
 8000e32:	f042 0201 	orr.w	r2, r2, #1
 8000e36:	601a      	str	r2, [r3, #0]
 8000e38:	4770      	bx	lr
 8000e3a:	f5b1 5f80 	cmp.w	r1, #4096	; 0x1000
 8000e3e:	d1f1      	bne.n	8000e24 <LCD_SetBackLight+0x2c>
 8000e40:	641a      	str	r2, [r3, #64]	; 0x40
 8000e42:	e7ef      	b.n	8000e24 <LCD_SetBackLight+0x2c>
 8000e44:	635a      	str	r2, [r3, #52]	; 0x34
 8000e46:	e7ed      	b.n	8000e24 <LCD_SetBackLight+0x2c>
 8000e48:	639a      	str	r2, [r3, #56]	; 0x38
 8000e4a:	e7eb      	b.n	8000e24 <LCD_SetBackLight+0x2c>
 8000e4c:	63da      	str	r2, [r3, #60]	; 0x3c
 8000e4e:	e7e9      	b.n	8000e24 <LCD_SetBackLight+0x2c>
 8000e50:	6d42      	ldr	r2, [r0, #84]	; 0x54
 8000e52:	b11a      	cbz	r2, 8000e5c <LCD_SetBackLight+0x64>
 8000e54:	f8b0 3058 	ldrh.w	r3, [r0, #88]	; 0x58
 8000e58:	b109      	cbz	r1, 8000e5e <LCD_SetBackLight+0x66>
 8000e5a:	6193      	str	r3, [r2, #24]
 8000e5c:	4770      	bx	lr
 8000e5e:	041b      	lsls	r3, r3, #16
 8000e60:	e7fb      	b.n	8000e5a <LCD_SetBackLight+0x62>

08000e62 <LCD_Init>:
 8000e62:	b510      	push	{r4, lr}
 8000e64:	4604      	mov	r4, r0
 8000e66:	f7ff fe7d 	bl	8000b64 <LCD_HardWareReset>
 8000e6a:	6963      	ldr	r3, [r4, #20]
 8000e6c:	7a20      	ldrb	r0, [r4, #8]
 8000e6e:	4798      	blx	r3
 8000e70:	4601      	mov	r1, r0
 8000e72:	4620      	mov	r0, r4
 8000e74:	f7ff ff6b 	bl	8000d4e <LCD_String_Interpretator>
 8000e78:	f894 105a 	ldrb.w	r1, [r4, #90]	; 0x5a
 8000e7c:	4620      	mov	r0, r4
 8000e7e:	e8bd 4010 	ldmia.w	sp!, {r4, lr}
 8000e82:	f7ff bfb9 	b.w	8000df8 <LCD_SetBackLight>

08000e86 <LCD_SetActiveWindow>:
 8000e86:	b5f8      	push	{r3, r4, r5, r6, r7, lr}
 8000e88:	4604      	mov	r4, r0
 8000e8a:	f8bd c018 	ldrh.w	ip, [sp, #24]
 8000e8e:	89a5      	ldrh	r5, [r4, #12]
 8000e90:	8940      	ldrh	r0, [r0, #10]
 8000e92:	69a6      	ldr	r6, [r4, #24]
 8000e94:	18c7      	adds	r7, r0, r3
 8000e96:	44ac      	add	ip, r5
 8000e98:	4408      	add	r0, r1
 8000e9a:	4415      	add	r5, r2
 8000e9c:	b2a9      	uxth	r1, r5
 8000e9e:	fa1f f38c 	uxth.w	r3, ip
 8000ea2:	b2ba      	uxth	r2, r7
 8000ea4:	b280      	uxth	r0, r0
 8000ea6:	47b0      	blx	r6
 8000ea8:	4601      	mov	r1, r0
 8000eaa:	4620      	mov	r0, r4
 8000eac:	e8bd 40f8 	ldmia.w	sp!, {r3, r4, r5, r6, r7, lr}
 8000eb0:	f7ff bf4d 	b.w	8000d4e <LCD_String_Interpretator>

08000eb4 <LCD_WriteData>:
 8000eb4:	b538      	push	{r3, r4, r5, lr}
 8000eb6:	6a45      	ldr	r5, [r0, #36]	; 0x24
 8000eb8:	4604      	mov	r4, r0
 8000eba:	4620      	mov	r0, r4
 8000ebc:	f7ff ff42 	bl	8000d44 <LCD_GetState>
 8000ec0:	2801      	cmp	r0, #1
 8000ec2:	d031      	beq.n	8000f28 <LCD_WriteData+0x74>
 8000ec4:	f894 3641 	ldrb.w	r3, [r4, #1601]	; 0x641
 8000ec8:	b92b      	cbnz	r3, 8000ed6 <LCD_WriteData+0x22>
 8000eca:	6c20      	ldr	r0, [r4, #64]	; 0x40
 8000ecc:	b118      	cbz	r0, 8000ed6 <LCD_WriteData+0x22>
 8000ece:	f8b4 3044 	ldrh.w	r3, [r4, #68]	; 0x44
 8000ed2:	041b      	lsls	r3, r3, #16
 8000ed4:	6183      	str	r3, [r0, #24]
 8000ed6:	f894 3642 	ldrb.w	r3, [r4, #1602]	; 0x642
 8000eda:	b913      	cbnz	r3, 8000ee2 <LCD_WriteData+0x2e>
 8000edc:	6ba3      	ldr	r3, [r4, #56]	; 0x38
 8000ede:	8fa0      	ldrh	r0, [r4, #60]	; 0x3c
 8000ee0:	6198      	str	r0, [r3, #24]
 8000ee2:	682b      	ldr	r3, [r5, #0]
 8000ee4:	f423 432c 	bic.w	r3, r3, #44032	; 0xac00
 8000ee8:	602b      	str	r3, [r5, #0]
 8000eea:	f894 0048 	ldrb.w	r0, [r4, #72]	; 0x48
 8000eee:	2802      	cmp	r0, #2
 8000ef0:	bf02      	ittt	eq
 8000ef2:	682b      	ldreq	r3, [r5, #0]
 8000ef4:	f443 6300 	orreq.w	r3, r3, #2048	; 0x800
 8000ef8:	602b      	streq	r3, [r5, #0]
 8000efa:	682b      	ldr	r3, [r5, #0]
 8000efc:	2802      	cmp	r0, #2
 8000efe:	f043 0340 	orr.w	r3, r3, #64	; 0x40
 8000f02:	602b      	str	r3, [r5, #0]
 8000f04:	d11c      	bne.n	8000f40 <LCD_WriteData+0x8c>
 8000f06:	b98a      	cbnz	r2, 8000f2c <LCD_WriteData+0x78>
 8000f08:	68ab      	ldr	r3, [r5, #8]
 8000f0a:	061b      	lsls	r3, r3, #24
 8000f0c:	d424      	bmi.n	8000f58 <LCD_WriteData+0xa4>
 8000f0e:	f894 3641 	ldrb.w	r3, [r4, #1601]	; 0x641
 8000f12:	b923      	cbnz	r3, 8000f1e <LCD_WriteData+0x6a>
 8000f14:	6c23      	ldr	r3, [r4, #64]	; 0x40
 8000f16:	b113      	cbz	r3, 8000f1e <LCD_WriteData+0x6a>
 8000f18:	f8b4 2044 	ldrh.w	r2, [r4, #68]	; 0x44
 8000f1c:	619a      	str	r2, [r3, #24]
 8000f1e:	682b      	ldr	r3, [r5, #0]
 8000f20:	f023 0340 	bic.w	r3, r3, #64	; 0x40
 8000f24:	602b      	str	r3, [r5, #0]
 8000f26:	bd38      	pop	{r3, r4, r5, pc}
 8000f28:	bf00      	nop
 8000f2a:	e7c6      	b.n	8000eba <LCD_WriteData+0x6>
 8000f2c:	f831 3b02 	ldrh.w	r3, [r1], #2
 8000f30:	60eb      	str	r3, [r5, #12]
 8000f32:	68ab      	ldr	r3, [r5, #8]
 8000f34:	079b      	lsls	r3, r3, #30
 8000f36:	d501      	bpl.n	8000f3c <LCD_WriteData+0x88>
 8000f38:	3a01      	subs	r2, #1
 8000f3a:	e7e4      	b.n	8000f06 <LCD_WriteData+0x52>
 8000f3c:	bf00      	nop
 8000f3e:	e7f8      	b.n	8000f32 <LCD_WriteData+0x7e>
 8000f40:	eb01 0242 	add.w	r2, r1, r2, lsl #1
 8000f44:	4291      	cmp	r1, r2
 8000f46:	d0df      	beq.n	8000f08 <LCD_WriteData+0x54>
 8000f48:	f811 3b01 	ldrb.w	r3, [r1], #1
 8000f4c:	60eb      	str	r3, [r5, #12]
 8000f4e:	68ab      	ldr	r3, [r5, #8]
 8000f50:	0798      	lsls	r0, r3, #30
 8000f52:	d4f7      	bmi.n	8000f44 <LCD_WriteData+0x90>
 8000f54:	bf00      	nop
 8000f56:	e7fa      	b.n	8000f4e <LCD_WriteData+0x9a>
 8000f58:	bf00      	nop
 8000f5a:	e7d5      	b.n	8000f08 <LCD_WriteData+0x54>

08000f5c <LCD_WriteDataDMA>:
 8000f5c:	6a83      	ldr	r3, [r0, #40]	; 0x28
 8000f5e:	e92d 41f3 	stmdb	sp!, {r0, r1, r4, r5, r6, r7, r8, lr}
 8000f62:	4604      	mov	r4, r0
 8000f64:	4688      	mov	r8, r1
 8000f66:	4615      	mov	r5, r2
 8000f68:	2b00      	cmp	r3, #0
 8000f6a:	d071      	beq.n	8001050 <LCD_WriteDataDMA+0xf4>
 8000f6c:	f890 3048 	ldrb.w	r3, [r0, #72]	; 0x48
 8000f70:	2b01      	cmp	r3, #1
 8000f72:	bf08      	it	eq
 8000f74:	0055      	lsleq	r5, r2, #1
 8000f76:	6a42      	ldr	r2, [r0, #36]	; 0x24
 8000f78:	4620      	mov	r0, r4
 8000f7a:	f7ff fee3 	bl	8000d44 <LCD_GetState>
 8000f7e:	2801      	cmp	r0, #1
 8000f80:	d064      	beq.n	800104c <LCD_WriteDataDMA+0xf0>
 8000f82:	f894 3641 	ldrb.w	r3, [r4, #1601]	; 0x641
 8000f86:	b92b      	cbnz	r3, 8000f94 <LCD_WriteDataDMA+0x38>
 8000f88:	6c21      	ldr	r1, [r4, #64]	; 0x40
 8000f8a:	b119      	cbz	r1, 8000f94 <LCD_WriteDataDMA+0x38>
 8000f8c:	f8b4 3044 	ldrh.w	r3, [r4, #68]	; 0x44
 8000f90:	041b      	lsls	r3, r3, #16
 8000f92:	618b      	str	r3, [r1, #24]
 8000f94:	f894 3642 	ldrb.w	r3, [r4, #1602]	; 0x642
 8000f98:	b913      	cbnz	r3, 8000fa0 <LCD_WriteDataDMA+0x44>
 8000f9a:	6ba3      	ldr	r3, [r4, #56]	; 0x38
 8000f9c:	8fa1      	ldrh	r1, [r4, #60]	; 0x3c
 8000f9e:	6199      	str	r1, [r3, #24]
 8000fa0:	6813      	ldr	r3, [r2, #0]
 8000fa2:	f8c4 563c 	str.w	r5, [r4, #1596]	; 0x63c
 8000fa6:	f423 432c 	bic.w	r3, r3, #44032	; 0xac00
 8000faa:	6013      	str	r3, [r2, #0]
 8000fac:	f894 3048 	ldrb.w	r3, [r4, #72]	; 0x48
 8000fb0:	492a      	ldr	r1, [pc, #168]	; (800105c <LCD_WriteDataDMA+0x100>)
 8000fb2:	2b02      	cmp	r3, #2
 8000fb4:	bf02      	ittt	eq
 8000fb6:	6813      	ldreq	r3, [r2, #0]
 8000fb8:	f443 6300 	orreq.w	r3, r3, #2048	; 0x800
 8000fbc:	6013      	streq	r3, [r2, #0]
 8000fbe:	6813      	ldr	r3, [r2, #0]
 8000fc0:	f043 0340 	orr.w	r3, r3, #64	; 0x40
 8000fc4:	6013      	str	r3, [r2, #0]
 8000fc6:	e9d4 370a 	ldrd	r3, r7, [r4, #40]	; 0x28
 8000fca:	5dce      	ldrb	r6, [r1, r7]
 8000fcc:	4924      	ldr	r1, [pc, #144]	; (8001060 <LCD_WriteDataDMA+0x104>)
 8000fce:	6808      	ldr	r0, [r1, #0]
 8000fd0:	6849      	ldr	r1, [r1, #4]
 8000fd2:	46ee      	mov	lr, sp
 8000fd4:	e8ae 0003 	stmia.w	lr!, {r0, r1}
 8000fd8:	f107 0108 	add.w	r1, r7, #8
 8000fdc:	2f03      	cmp	r7, #3
 8000fde:	eb0d 0701 	add.w	r7, sp, r1
 8000fe2:	bf88      	it	hi
 8000fe4:	f103 000c 	addhi.w	r0, r3, #12
 8000fe8:	f817 7c08 	ldrb.w	r7, [r7, #-8]
 8000fec:	bf98      	it	ls
 8000fee:	f103 0008 	addls.w	r0, r3, #8
 8000ff2:	213f      	movs	r1, #63	; 0x3f
 8000ff4:	40b9      	lsls	r1, r7
 8000ff6:	6001      	str	r1, [r0, #0]
 8000ff8:	6851      	ldr	r1, [r2, #4]
 8000ffa:	eb03 0c06 	add.w	ip, r3, r6
 8000ffe:	f041 0102 	orr.w	r1, r1, #2
 8001002:	6051      	str	r1, [r2, #4]
 8001004:	320c      	adds	r2, #12
 8001006:	f8cc 2008 	str.w	r2, [ip, #8]
 800100a:	f8cc 800c 	str.w	r8, [ip, #12]
 800100e:	599a      	ldr	r2, [r3, r6]
 8001010:	f422 7200 	bic.w	r2, r2, #512	; 0x200
 8001014:	519a      	str	r2, [r3, r6]
 8001016:	599a      	ldr	r2, [r3, r6]
 8001018:	f5b5 3f80 	cmp.w	r5, #65536	; 0x10000
 800101c:	f442 6280 	orr.w	r2, r2, #1024	; 0x400
 8001020:	519a      	str	r2, [r3, r6]
 8001022:	bf2a      	itet	cs
 8001024:	f64f 72ff 	movwcs	r2, #65535	; 0xffff
 8001028:	f8cc 5004 	strcc.w	r5, [ip, #4]
 800102c:	f8cc 2004 	strcs.w	r2, [ip, #4]
 8001030:	599a      	ldr	r2, [r3, r6]
 8001032:	bf2a      	itet	cs
 8001034:	f5a5 457f 	subcs.w	r5, r5, #65280	; 0xff00
 8001038:	2500      	movcc	r5, #0
 800103a:	3dff      	subcs	r5, #255	; 0xff
 800103c:	f042 0201 	orr.w	r2, r2, #1
 8001040:	f8c4 563c 	str.w	r5, [r4, #1596]	; 0x63c
 8001044:	519a      	str	r2, [r3, r6]
 8001046:	b002      	add	sp, #8
 8001048:	e8bd 81f0 	ldmia.w	sp!, {r4, r5, r6, r7, r8, pc}
 800104c:	bf00      	nop
 800104e:	e793      	b.n	8000f78 <LCD_WriteDataDMA+0x1c>
 8001050:	b002      	add	sp, #8
 8001052:	e8bd 41f0 	ldmia.w	sp!, {r4, r5, r6, r7, r8, lr}
 8001056:	f7ff bf2d 	b.w	8000eb4 <LCD_WriteData>
 800105a:	bf00      	nop
 800105c:	08004a12 	.word	0x08004a12
 8001060:	080049c8 	.word	0x080049c8

08001064 <LCD_DrawImage>:
 8001064:	e92d 47f3 	stmdb	sp!, {r0, r1, r4, r5, r6, r7, r8, r9, sl, lr}
 8001068:	f8b0 c004 	ldrh.w	ip, [r0, #4]
 800106c:	f8bd 8028 	ldrh.w	r8, [sp, #40]	; 0x28
 8001070:	f8dd 902c 	ldr.w	r9, [sp, #44]	; 0x2c
 8001074:	f89d a030 	ldrb.w	sl, [sp, #48]	; 0x30
 8001078:	458c      	cmp	ip, r1
 800107a:	4607      	mov	r7, r0
 800107c:	4614      	mov	r4, r2
 800107e:	461e      	mov	r6, r3
 8001080:	d925      	bls.n	80010ce <LCD_DrawImage+0x6a>
 8001082:	88c3      	ldrh	r3, [r0, #6]
 8001084:	4293      	cmp	r3, r2
 8001086:	d922      	bls.n	80010ce <LCD_DrawImage+0x6a>
 8001088:	eb01 0e06 	add.w	lr, r1, r6
 800108c:	45e6      	cmp	lr, ip
 800108e:	dc1e      	bgt.n	80010ce <LCD_DrawImage+0x6a>
 8001090:	eb02 0c08 	add.w	ip, r2, r8
 8001094:	459c      	cmp	ip, r3
 8001096:	dc1a      	bgt.n	80010ce <LCD_DrawImage+0x6a>
 8001098:	f108 35ff 	add.w	r5, r8, #4294967295
 800109c:	1e73      	subs	r3, r6, #1
 800109e:	442c      	add	r4, r5
 80010a0:	440b      	add	r3, r1
 80010a2:	b2a4      	uxth	r4, r4
 80010a4:	9400      	str	r4, [sp, #0]
 80010a6:	b29b      	uxth	r3, r3
 80010a8:	f7ff feed 	bl	8000e86 <LCD_SetActiveWindow>
 80010ac:	fb08 f206 	mul.w	r2, r8, r6
 80010b0:	4649      	mov	r1, r9
 80010b2:	4638      	mov	r0, r7
 80010b4:	f1ba 0f00 	cmp.w	sl, #0
 80010b8:	d004      	beq.n	80010c4 <LCD_DrawImage+0x60>
 80010ba:	b002      	add	sp, #8
 80010bc:	e8bd 47f0 	ldmia.w	sp!, {r4, r5, r6, r7, r8, r9, sl, lr}
 80010c0:	f7ff bf4c 	b.w	8000f5c <LCD_WriteDataDMA>
 80010c4:	b002      	add	sp, #8
 80010c6:	e8bd 47f0 	ldmia.w	sp!, {r4, r5, r6, r7, r8, r9, sl, lr}
 80010ca:	f7ff bef3 	b.w	8000eb4 <LCD_WriteData>
 80010ce:	b002      	add	sp, #8
 80010d0:	e8bd 87f0 	ldmia.w	sp!, {r4, r5, r6, r7, r8, r9, sl, pc}

080010d4 <LCD_Color>:
 80010d4:	00d2      	lsls	r2, r2, #3
 80010d6:	f402 62fc 	and.w	r2, r2, #2016	; 0x7e0
 80010da:	ea42 03d3 	orr.w	r3, r2, r3, lsr #3
 80010de:	4a06      	ldr	r2, [pc, #24]	; (80010f8 <LCD_Color+0x24>)
 80010e0:	ea02 2101 	and.w	r1, r2, r1, lsl #8
 80010e4:	4319      	orrs	r1, r3
 80010e6:	f890 3048 	ldrb.w	r3, [r0, #72]	; 0x48
 80010ea:	2b01      	cmp	r3, #1
 80010ec:	d101      	bne.n	80010f2 <LCD_Color+0x1e>
 80010ee:	ba49      	rev16	r1, r1
 80010f0:	b289      	uxth	r1, r1
 80010f2:	4608      	mov	r0, r1
 80010f4:	4770      	bx	lr
 80010f6:	bf00      	nop
 80010f8:	fffff800 	.word	0xfffff800

080010fc <LCD_Color_24b_to_16b>:
 80010fc:	b2cb      	uxtb	r3, r1
 80010fe:	f3c1 2207 	ubfx	r2, r1, #8, #8
 8001102:	f3c1 4107 	ubfx	r1, r1, #16, #8
 8001106:	f7ff bfe5 	b.w	80010d4 <LCD_Color>
	...

0800110c <LCD_FillWindow>:
 800110c:	b5f0      	push	{r4, r5, r6, r7, lr}
 800110e:	b085      	sub	sp, #20
 8001110:	4299      	cmp	r1, r3
 8001112:	4604      	mov	r4, r0
 8001114:	f8bd 0028 	ldrh.w	r0, [sp, #40]	; 0x28
 8001118:	88a6      	ldrh	r6, [r4, #4]
 800111a:	bf82      	ittt	hi
 800111c:	460d      	movhi	r5, r1
 800111e:	4619      	movhi	r1, r3
 8001120:	462b      	movhi	r3, r5
 8001122:	4282      	cmp	r2, r0
 8001124:	bf82      	ittt	hi
 8001126:	4615      	movhi	r5, r2
 8001128:	4602      	movhi	r2, r0
 800112a:	4628      	movhi	r0, r5
 800112c:	428e      	cmp	r6, r1
 800112e:	f240 8086 	bls.w	800123e <LCD_FillWindow+0x132>
 8001132:	88e5      	ldrh	r5, [r4, #6]
 8001134:	4295      	cmp	r5, r2
 8001136:	f240 8082 	bls.w	800123e <LCD_FillWindow+0x132>
 800113a:	429e      	cmp	r6, r3
 800113c:	bf9c      	itt	ls
 800113e:	f106 36ff 	addls.w	r6, r6, #4294967295
 8001142:	b2b3      	uxthls	r3, r6
 8001144:	4285      	cmp	r5, r0
 8001146:	bf9c      	itt	ls
 8001148:	f105 35ff 	addls.w	r5, r5, #4294967295
 800114c:	b2a8      	uxthls	r0, r5
 800114e:	1a85      	subs	r5, r0, r2
 8001150:	9000      	str	r0, [sp, #0]
 8001152:	4620      	mov	r0, r4
 8001154:	1a5e      	subs	r6, r3, r1
 8001156:	f7ff fe96 	bl	8000e86 <LCD_SetActiveWindow>
 800115a:	f894 3641 	ldrb.w	r3, [r4, #1601]	; 0x641
 800115e:	3501      	adds	r5, #1
 8001160:	fb06 5505 	mla	r5, r6, r5, r5
 8001164:	b92b      	cbnz	r3, 8001172 <LCD_FillWindow+0x66>
 8001166:	6c22      	ldr	r2, [r4, #64]	; 0x40
 8001168:	b11a      	cbz	r2, 8001172 <LCD_FillWindow+0x66>
 800116a:	f8b4 3044 	ldrh.w	r3, [r4, #68]	; 0x44
 800116e:	041b      	lsls	r3, r3, #16
 8001170:	6193      	str	r3, [r2, #24]
 8001172:	f894 3642 	ldrb.w	r3, [r4, #1602]	; 0x642
 8001176:	b913      	cbnz	r3, 800117e <LCD_FillWindow+0x72>
 8001178:	6ba3      	ldr	r3, [r4, #56]	; 0x38
 800117a:	8fa2      	ldrh	r2, [r4, #60]	; 0x3c
 800117c:	619a      	str	r2, [r3, #24]
 800117e:	990b      	ldr	r1, [sp, #44]	; 0x2c
 8001180:	4620      	mov	r0, r4
 8001182:	f7ff ffbb 	bl	80010fc <LCD_Color_24b_to_16b>
 8001186:	6a63      	ldr	r3, [r4, #36]	; 0x24
 8001188:	f8a4 0644 	strh.w	r0, [r4, #1604]	; 0x644
 800118c:	681a      	ldr	r2, [r3, #0]
 800118e:	f422 422c 	bic.w	r2, r2, #44032	; 0xac00
 8001192:	601a      	str	r2, [r3, #0]
 8001194:	f894 1048 	ldrb.w	r1, [r4, #72]	; 0x48
 8001198:	2902      	cmp	r1, #2
 800119a:	bf02      	ittt	eq
 800119c:	681a      	ldreq	r2, [r3, #0]
 800119e:	f442 6200 	orreq.w	r2, r2, #2048	; 0x800
 80011a2:	601a      	streq	r2, [r3, #0]
 80011a4:	681a      	ldr	r2, [r3, #0]
 80011a6:	f042 0240 	orr.w	r2, r2, #64	; 0x40
 80011aa:	601a      	str	r2, [r3, #0]
 80011ac:	6aa2      	ldr	r2, [r4, #40]	; 0x28
 80011ae:	2a00      	cmp	r2, #0
 80011b0:	d047      	beq.n	8001242 <LCD_FillWindow+0x136>
 80011b2:	6ae7      	ldr	r7, [r4, #44]	; 0x2c
 80011b4:	2901      	cmp	r1, #1
 80011b6:	493a      	ldr	r1, [pc, #232]	; (80012a0 <LCD_FillWindow+0x194>)
 80011b8:	5dce      	ldrb	r6, [r1, r7]
 80011ba:	493a      	ldr	r1, [pc, #232]	; (80012a4 <LCD_FillWindow+0x198>)
 80011bc:	6808      	ldr	r0, [r1, #0]
 80011be:	6849      	ldr	r1, [r1, #4]
 80011c0:	f10d 0e08 	add.w	lr, sp, #8
 80011c4:	e8ae 0003 	stmia.w	lr!, {r0, r1}
 80011c8:	f107 0110 	add.w	r1, r7, #16
 80011cc:	bf08      	it	eq
 80011ce:	006d      	lsleq	r5, r5, #1
 80011d0:	2f03      	cmp	r7, #3
 80011d2:	eb0d 0701 	add.w	r7, sp, r1
 80011d6:	bf88      	it	hi
 80011d8:	f102 000c 	addhi.w	r0, r2, #12
 80011dc:	f817 7c08 	ldrb.w	r7, [r7, #-8]
 80011e0:	bf98      	it	ls
 80011e2:	f102 0008 	addls.w	r0, r2, #8
 80011e6:	213f      	movs	r1, #63	; 0x3f
 80011e8:	40b9      	lsls	r1, r7
 80011ea:	6001      	str	r1, [r0, #0]
 80011ec:	6859      	ldr	r1, [r3, #4]
 80011ee:	eb02 0c06 	add.w	ip, r2, r6
 80011f2:	f041 0102 	orr.w	r1, r1, #2
 80011f6:	6059      	str	r1, [r3, #4]
 80011f8:	330c      	adds	r3, #12
 80011fa:	f8cc 3008 	str.w	r3, [ip, #8]
 80011fe:	f204 6344 	addw	r3, r4, #1604	; 0x644
 8001202:	f8cc 300c 	str.w	r3, [ip, #12]
 8001206:	5993      	ldr	r3, [r2, r6]
 8001208:	f423 7300 	bic.w	r3, r3, #512	; 0x200
 800120c:	5193      	str	r3, [r2, r6]
 800120e:	5993      	ldr	r3, [r2, r6]
 8001210:	f5b5 3f80 	cmp.w	r5, #65536	; 0x10000
 8001214:	f423 6380 	bic.w	r3, r3, #1024	; 0x400
 8001218:	5193      	str	r3, [r2, r6]
 800121a:	bf2a      	itet	cs
 800121c:	f64f 73ff 	movwcs	r3, #65535	; 0xffff
 8001220:	f8cc 5004 	strcc.w	r5, [ip, #4]
 8001224:	f8cc 3004 	strcs.w	r3, [ip, #4]
 8001228:	5993      	ldr	r3, [r2, r6]
 800122a:	bf2a      	itet	cs
 800122c:	f5a5 457f 	subcs.w	r5, r5, #65280	; 0xff00
 8001230:	2500      	movcc	r5, #0
 8001232:	3dff      	subcs	r5, #255	; 0xff
 8001234:	f043 0301 	orr.w	r3, r3, #1
 8001238:	f8c4 563c 	str.w	r5, [r4, #1596]	; 0x63c
 800123c:	5193      	str	r3, [r2, r6]
 800123e:	b005      	add	sp, #20
 8001240:	bdf0      	pop	{r4, r5, r6, r7, pc}
 8001242:	2902      	cmp	r1, #2
 8001244:	d118      	bne.n	8001278 <LCD_FillWindow+0x16c>
 8001246:	b97d      	cbnz	r5, 8001268 <LCD_FillWindow+0x15c>
 8001248:	689a      	ldr	r2, [r3, #8]
 800124a:	0612      	lsls	r2, r2, #24
 800124c:	d426      	bmi.n	800129c <LCD_FillWindow+0x190>
 800124e:	f894 2641 	ldrb.w	r2, [r4, #1601]	; 0x641
 8001252:	b922      	cbnz	r2, 800125e <LCD_FillWindow+0x152>
 8001254:	6c22      	ldr	r2, [r4, #64]	; 0x40
 8001256:	b112      	cbz	r2, 800125e <LCD_FillWindow+0x152>
 8001258:	f8b4 1044 	ldrh.w	r1, [r4, #68]	; 0x44
 800125c:	6191      	str	r1, [r2, #24]
 800125e:	681a      	ldr	r2, [r3, #0]
 8001260:	f022 0240 	bic.w	r2, r2, #64	; 0x40
 8001264:	601a      	str	r2, [r3, #0]
 8001266:	e7ea      	b.n	800123e <LCD_FillWindow+0x132>
 8001268:	60d8      	str	r0, [r3, #12]
 800126a:	689a      	ldr	r2, [r3, #8]
 800126c:	0797      	lsls	r7, r2, #30
 800126e:	d501      	bpl.n	8001274 <LCD_FillWindow+0x168>
 8001270:	3d01      	subs	r5, #1
 8001272:	e7e8      	b.n	8001246 <LCD_FillWindow+0x13a>
 8001274:	bf00      	nop
 8001276:	e7f8      	b.n	800126a <LCD_FillWindow+0x15e>
 8001278:	b2c2      	uxtb	r2, r0
 800127a:	0a00      	lsrs	r0, r0, #8
 800127c:	2d00      	cmp	r5, #0
 800127e:	d0e3      	beq.n	8001248 <LCD_FillWindow+0x13c>
 8001280:	60da      	str	r2, [r3, #12]
 8001282:	6899      	ldr	r1, [r3, #8]
 8001284:	078e      	lsls	r6, r1, #30
 8001286:	d505      	bpl.n	8001294 <LCD_FillWindow+0x188>
 8001288:	60d8      	str	r0, [r3, #12]
 800128a:	6899      	ldr	r1, [r3, #8]
 800128c:	0789      	lsls	r1, r1, #30
 800128e:	d503      	bpl.n	8001298 <LCD_FillWindow+0x18c>
 8001290:	3d01      	subs	r5, #1
 8001292:	e7f3      	b.n	800127c <LCD_FillWindow+0x170>
 8001294:	bf00      	nop
 8001296:	e7f4      	b.n	8001282 <LCD_FillWindow+0x176>
 8001298:	bf00      	nop
 800129a:	e7f6      	b.n	800128a <LCD_FillWindow+0x17e>
 800129c:	bf00      	nop
 800129e:	e7d3      	b.n	8001248 <LCD_FillWindow+0x13c>
 80012a0:	08004a12 	.word	0x08004a12
 80012a4:	080049c8 	.word	0x080049c8

080012a8 <LCD_Fill>:
 80012a8:	b507      	push	{r0, r1, r2, lr}
 80012aa:	88c2      	ldrh	r2, [r0, #6]
 80012ac:	8883      	ldrh	r3, [r0, #4]
 80012ae:	9101      	str	r1, [sp, #4]
 80012b0:	3a01      	subs	r2, #1
 80012b2:	b292      	uxth	r2, r2
 80012b4:	9200      	str	r2, [sp, #0]
 80012b6:	3b01      	subs	r3, #1
 80012b8:	2200      	movs	r2, #0
 80012ba:	b29b      	uxth	r3, r3
 80012bc:	4611      	mov	r1, r2
 80012be:	f7ff ff25 	bl	800110c <LCD_FillWindow>
 80012c2:	b003      	add	sp, #12
 80012c4:	f85d fb04 	ldr.w	pc, [sp], #4

080012c8 <LCD_DrawFilledRectangle>:
 80012c8:	b470      	push	{r4, r5, r6}
 80012ca:	4299      	cmp	r1, r3
 80012cc:	f9bd 400c 	ldrsh.w	r4, [sp, #12]
 80012d0:	9d04      	ldr	r5, [sp, #16]
 80012d2:	bfc2      	ittt	gt
 80012d4:	460e      	movgt	r6, r1
 80012d6:	4619      	movgt	r1, r3
 80012d8:	4633      	movgt	r3, r6
 80012da:	42a2      	cmp	r2, r4
 80012dc:	bfc2      	ittt	gt
 80012de:	4616      	movgt	r6, r2
 80012e0:	4622      	movgt	r2, r4
 80012e2:	4634      	movgt	r4, r6
 80012e4:	2b00      	cmp	r3, #0
 80012e6:	db14      	blt.n	8001312 <LCD_DrawFilledRectangle+0x4a>
 80012e8:	8886      	ldrh	r6, [r0, #4]
 80012ea:	428e      	cmp	r6, r1
 80012ec:	dd11      	ble.n	8001312 <LCD_DrawFilledRectangle+0x4a>
 80012ee:	2c00      	cmp	r4, #0
 80012f0:	db0f      	blt.n	8001312 <LCD_DrawFilledRectangle+0x4a>
 80012f2:	88c6      	ldrh	r6, [r0, #6]
 80012f4:	4296      	cmp	r6, r2
 80012f6:	dd0c      	ble.n	8001312 <LCD_DrawFilledRectangle+0x4a>
 80012f8:	b2a4      	uxth	r4, r4
 80012fa:	ea22 72e2 	bic.w	r2, r2, r2, asr #31
 80012fe:	ea21 71e1 	bic.w	r1, r1, r1, asr #31
 8001302:	9504      	str	r5, [sp, #16]
 8001304:	9403      	str	r4, [sp, #12]
 8001306:	b29b      	uxth	r3, r3
 8001308:	bc70      	pop	{r4, r5, r6}
 800130a:	b292      	uxth	r2, r2
 800130c:	b289      	uxth	r1, r1
 800130e:	f7ff befd 	b.w	800110c <LCD_FillWindow>
 8001312:	bc70      	pop	{r4, r5, r6}
 8001314:	4770      	bx	lr

08001316 <LCD_DrawPixel>:
 8001316:	b530      	push	{r4, r5, lr}
 8001318:	461d      	mov	r5, r3
 800131a:	8883      	ldrh	r3, [r0, #4]
 800131c:	428b      	cmp	r3, r1
 800131e:	b085      	sub	sp, #20
 8001320:	4604      	mov	r4, r0
 8001322:	dd17      	ble.n	8001354 <LCD_DrawPixel+0x3e>
 8001324:	88c3      	ldrh	r3, [r0, #6]
 8001326:	4293      	cmp	r3, r2
 8001328:	dd14      	ble.n	8001354 <LCD_DrawPixel+0x3e>
 800132a:	ea51 0302 	orrs.w	r3, r1, r2
 800132e:	d411      	bmi.n	8001354 <LCD_DrawPixel+0x3e>
 8001330:	b292      	uxth	r2, r2
 8001332:	b28b      	uxth	r3, r1
 8001334:	9200      	str	r2, [sp, #0]
 8001336:	4619      	mov	r1, r3
 8001338:	f7ff fda5 	bl	8000e86 <LCD_SetActiveWindow>
 800133c:	4629      	mov	r1, r5
 800133e:	4620      	mov	r0, r4
 8001340:	f7ff fedc 	bl	80010fc <LCD_Color_24b_to_16b>
 8001344:	2201      	movs	r2, #1
 8001346:	f8ad 000e 	strh.w	r0, [sp, #14]
 800134a:	f10d 010e 	add.w	r1, sp, #14
 800134e:	4620      	mov	r0, r4
 8001350:	f7ff fdb0 	bl	8000eb4 <LCD_WriteData>
 8001354:	b005      	add	sp, #20
 8001356:	bd30      	pop	{r4, r5, pc}

08001358 <LCD_DrawLine>:
 8001358:	e92d 4ff0 	stmdb	sp!, {r4, r5, r6, r7, r8, r9, sl, fp, lr}
 800135c:	461f      	mov	r7, r3
 800135e:	b085      	sub	sp, #20
 8001360:	42b9      	cmp	r1, r7
 8001362:	f9bd 6038 	ldrsh.w	r6, [sp, #56]	; 0x38
 8001366:	9b0f      	ldr	r3, [sp, #60]	; 0x3c
 8001368:	460c      	mov	r4, r1
 800136a:	4615      	mov	r5, r2
 800136c:	d01c      	beq.n	80013a8 <LCD_DrawLine+0x50>
 800136e:	42b2      	cmp	r2, r6
 8001370:	d122      	bne.n	80013b8 <LCD_DrawLine+0x60>
 8001372:	42b9      	cmp	r1, r7
 8001374:	dc1d      	bgt.n	80013b2 <LCD_DrawLine+0x5a>
 8001376:	2f00      	cmp	r7, #0
 8001378:	db54      	blt.n	8001424 <LCD_DrawLine+0xcc>
 800137a:	8882      	ldrh	r2, [r0, #4]
 800137c:	42a2      	cmp	r2, r4
 800137e:	dd51      	ble.n	8001424 <LCD_DrawLine+0xcc>
 8001380:	2e00      	cmp	r6, #0
 8001382:	db4f      	blt.n	8001424 <LCD_DrawLine+0xcc>
 8001384:	88c2      	ldrh	r2, [r0, #6]
 8001386:	42aa      	cmp	r2, r5
 8001388:	dd4c      	ble.n	8001424 <LCD_DrawLine+0xcc>
 800138a:	ea25 72e5 	bic.w	r2, r5, r5, asr #31
 800138e:	ea24 71e4 	bic.w	r1, r4, r4, asr #31
 8001392:	930f      	str	r3, [sp, #60]	; 0x3c
 8001394:	b2b6      	uxth	r6, r6
 8001396:	b2bb      	uxth	r3, r7
 8001398:	b292      	uxth	r2, r2
 800139a:	b289      	uxth	r1, r1
 800139c:	960e      	str	r6, [sp, #56]	; 0x38
 800139e:	b005      	add	sp, #20
 80013a0:	e8bd 4ff0 	ldmia.w	sp!, {r4, r5, r6, r7, r8, r9, sl, fp, lr}
 80013a4:	f7ff beb2 	b.w	800110c <LCD_FillWindow>
 80013a8:	42b2      	cmp	r2, r6
 80013aa:	dde4      	ble.n	8001376 <LCD_DrawLine+0x1e>
 80013ac:	4635      	mov	r5, r6
 80013ae:	4616      	mov	r6, r2
 80013b0:	e7e1      	b.n	8001376 <LCD_DrawLine+0x1e>
 80013b2:	463c      	mov	r4, r7
 80013b4:	460f      	mov	r7, r1
 80013b6:	e7de      	b.n	8001376 <LCD_DrawLine+0x1e>
 80013b8:	eba6 0902 	sub.w	r9, r6, r2
 80013bc:	eba7 0a01 	sub.w	sl, r7, r1
 80013c0:	f1b9 0f00 	cmp.w	r9, #0
 80013c4:	bfb8      	it	lt
 80013c6:	f1c9 0900 	rsblt	r9, r9, #0
 80013ca:	f1ba 0f00 	cmp.w	sl, #0
 80013ce:	bfb8      	it	lt
 80013d0:	f1ca 0a00 	rsblt	sl, sl, #0
 80013d4:	45d1      	cmp	r9, sl
 80013d6:	dd04      	ble.n	80013e2 <LCD_DrawLine+0x8a>
 80013d8:	463a      	mov	r2, r7
 80013da:	462c      	mov	r4, r5
 80013dc:	4637      	mov	r7, r6
 80013de:	460d      	mov	r5, r1
 80013e0:	4616      	mov	r6, r2
 80013e2:	42bc      	cmp	r4, r7
 80013e4:	dd05      	ble.n	80013f2 <LCD_DrawLine+0x9a>
 80013e6:	462a      	mov	r2, r5
 80013e8:	4635      	mov	r5, r6
 80013ea:	4616      	mov	r6, r2
 80013ec:	4622      	mov	r2, r4
 80013ee:	463c      	mov	r4, r7
 80013f0:	4617      	mov	r7, r2
 80013f2:	eba7 0804 	sub.w	r8, r7, r4
 80013f6:	fa1f f288 	uxth.w	r2, r8
 80013fa:	eba6 0b05 	sub.w	fp, r6, r5
 80013fe:	9201      	str	r2, [sp, #4]
 8001400:	f3c8 32c0 	ubfx	r2, r8, #15, #1
 8001404:	f1bb 0f00 	cmp.w	fp, #0
 8001408:	fa02 f888 	sxtah	r8, r2, r8
 800140c:	bfb8      	it	lt
 800140e:	f1cb 0b00 	rsblt	fp, fp, #0
 8001412:	ea4f 0868 	mov.w	r8, r8, asr #1
 8001416:	42b5      	cmp	r5, r6
 8001418:	bfb4      	ite	lt
 800141a:	2601      	movlt	r6, #1
 800141c:	f04f 36ff 	movge.w	r6, #4294967295
 8001420:	42bc      	cmp	r4, r7
 8001422:	dd02      	ble.n	800142a <LCD_DrawLine+0xd2>
 8001424:	b005      	add	sp, #20
 8001426:	e8bd 8ff0 	ldmia.w	sp!, {r4, r5, r6, r7, r8, r9, sl, fp, pc}
 800142a:	45d1      	cmp	r9, sl
 800142c:	bfcb      	itete	gt
 800142e:	4622      	movgt	r2, r4
 8001430:	462a      	movle	r2, r5
 8001432:	4629      	movgt	r1, r5
 8001434:	4621      	movle	r1, r4
 8001436:	eba8 080b 	sub.w	r8, r8, fp
 800143a:	9303      	str	r3, [sp, #12]
 800143c:	9002      	str	r0, [sp, #8]
 800143e:	f7ff ff6a 	bl	8001316 <LCD_DrawPixel>
 8001442:	fa1f f288 	uxth.w	r2, r8
 8001446:	fa0f f888 	sxth.w	r8, r8
 800144a:	f1b8 0f00 	cmp.w	r8, #0
 800144e:	e9dd 0302 	ldrd	r0, r3, [sp, #8]
 8001452:	da05      	bge.n	8001460 <LCD_DrawLine+0x108>
 8001454:	9901      	ldr	r1, [sp, #4]
 8001456:	4435      	add	r5, r6
 8001458:	440a      	add	r2, r1
 800145a:	b22d      	sxth	r5, r5
 800145c:	fa0f f882 	sxth.w	r8, r2
 8001460:	3401      	adds	r4, #1
 8001462:	b224      	sxth	r4, r4
 8001464:	e7dc      	b.n	8001420 <LCD_DrawLine+0xc8>

08001466 <LCD_DrawRectangle>:
 8001466:	e92d 43f7 	stmdb	sp!, {r0, r1, r2, r4, r5, r6, r7, r8, r9, lr}
 800146a:	f8dd 902c 	ldr.w	r9, [sp, #44]	; 0x2c
 800146e:	f9bd 8028 	ldrsh.w	r8, [sp, #40]	; 0x28
 8001472:	4604      	mov	r4, r0
 8001474:	460e      	mov	r6, r1
 8001476:	4615      	mov	r5, r2
 8001478:	e9cd 2900 	strd	r2, r9, [sp]
 800147c:	461f      	mov	r7, r3
 800147e:	f7ff ff6b 	bl	8001358 <LCD_DrawLine>
 8001482:	4633      	mov	r3, r6
 8001484:	462a      	mov	r2, r5
 8001486:	4631      	mov	r1, r6
 8001488:	4620      	mov	r0, r4
 800148a:	e9cd 8900 	strd	r8, r9, [sp]
 800148e:	f7ff ff63 	bl	8001358 <LCD_DrawLine>
 8001492:	463b      	mov	r3, r7
 8001494:	4642      	mov	r2, r8
 8001496:	4631      	mov	r1, r6
 8001498:	4620      	mov	r0, r4
 800149a:	e9cd 8900 	strd	r8, r9, [sp]
 800149e:	f7ff ff5b 	bl	8001358 <LCD_DrawLine>
 80014a2:	463b      	mov	r3, r7
 80014a4:	462a      	mov	r2, r5
 80014a6:	4639      	mov	r1, r7
 80014a8:	4620      	mov	r0, r4
 80014aa:	e9cd 890a 	strd	r8, r9, [sp, #40]	; 0x28
 80014ae:	b003      	add	sp, #12
 80014b0:	e8bd 43f0 	ldmia.w	sp!, {r4, r5, r6, r7, r8, r9, lr}
 80014b4:	f7ff bf50 	b.w	8001358 <LCD_DrawLine>

080014b8 <LCD_WriteChar>:
 80014b8:	e92d 4ff0 	stmdb	sp!, {r4, r5, r6, r7, r8, r9, sl, fp, lr}
 80014bc:	b087      	sub	sp, #28
 80014be:	4691      	mov	r9, r2
 80014c0:	9103      	str	r1, [sp, #12]
 80014c2:	f89d 204c 	ldrb.w	r2, [sp, #76]	; 0x4c
 80014c6:	9911      	ldr	r1, [sp, #68]	; 0x44
 80014c8:	9202      	str	r2, [sp, #8]
 80014ca:	461f      	mov	r7, r3
 80014cc:	4605      	mov	r5, r0
 80014ce:	f7ff fe15 	bl	80010fc <LCD_Color_24b_to_16b>
 80014d2:	9e10      	ldr	r6, [sp, #64]	; 0x40
 80014d4:	9912      	ldr	r1, [sp, #72]	; 0x48
 80014d6:	6874      	ldr	r4, [r6, #4]
 80014d8:	4683      	mov	fp, r0
 80014da:	4628      	mov	r0, r5
 80014dc:	f7ff fe0e 	bl	80010fc <LCD_Color_24b_to_16b>
 80014e0:	7a33      	ldrb	r3, [r6, #8]
 80014e2:	9a02      	ldr	r2, [sp, #8]
 80014e4:	42bb      	cmp	r3, r7
 80014e6:	4682      	mov	sl, r0
 80014e8:	d85c      	bhi.n	80015a4 <LCD_WriteChar+0xec>
 80014ea:	7a71      	ldrb	r1, [r6, #9]
 80014ec:	42b9      	cmp	r1, r7
 80014ee:	d359      	bcc.n	80015a4 <LCD_WriteChar+0xec>
 80014f0:	1aff      	subs	r7, r7, r3
 80014f2:	b2ff      	uxtb	r7, r7
 80014f4:	7830      	ldrb	r0, [r6, #0]
 80014f6:	1e43      	subs	r3, r0, #1
 80014f8:	10db      	asrs	r3, r3, #3
 80014fa:	f103 0801 	add.w	r8, r3, #1
 80014fe:	9302      	str	r3, [sp, #8]
 8001500:	ea4f 03c8 	mov.w	r3, r8, lsl #3
 8001504:	2101      	movs	r1, #1
 8001506:	3b01      	subs	r3, #1
 8001508:	fa01 f303 	lsl.w	r3, r1, r3
 800150c:	7871      	ldrb	r1, [r6, #1]
 800150e:	9304      	str	r3, [sp, #16]
 8001510:	fb08 f707 	mul.w	r7, r8, r7
 8001514:	fb01 4407 	mla	r4, r1, r7, r4
 8001518:	6a6f      	ldr	r7, [r5, #36]	; 0x24
 800151a:	2a00      	cmp	r2, #0
 800151c:	f040 80be 	bne.w	800169c <LCD_WriteChar+0x1e4>
 8001520:	9b03      	ldr	r3, [sp, #12]
 8001522:	f109 32ff 	add.w	r2, r9, #4294967295
 8001526:	440a      	add	r2, r1
 8001528:	3b01      	subs	r3, #1
 800152a:	4403      	add	r3, r0
 800152c:	b292      	uxth	r2, r2
 800152e:	9200      	str	r2, [sp, #0]
 8001530:	9903      	ldr	r1, [sp, #12]
 8001532:	464a      	mov	r2, r9
 8001534:	b29b      	uxth	r3, r3
 8001536:	4628      	mov	r0, r5
 8001538:	f7ff fca5 	bl	8000e86 <LCD_SetActiveWindow>
 800153c:	6c2a      	ldr	r2, [r5, #64]	; 0x40
 800153e:	b11a      	cbz	r2, 8001548 <LCD_WriteChar+0x90>
 8001540:	f8b5 3044 	ldrh.w	r3, [r5, #68]	; 0x44
 8001544:	041b      	lsls	r3, r3, #16
 8001546:	6193      	str	r3, [r2, #24]
 8001548:	6bab      	ldr	r3, [r5, #56]	; 0x38
 800154a:	8faa      	ldrh	r2, [r5, #60]	; 0x3c
 800154c:	619a      	str	r2, [r3, #24]
 800154e:	683b      	ldr	r3, [r7, #0]
 8001550:	f023 0340 	bic.w	r3, r3, #64	; 0x40
 8001554:	603b      	str	r3, [r7, #0]
 8001556:	683b      	ldr	r3, [r7, #0]
 8001558:	f423 432c 	bic.w	r3, r3, #44032	; 0xac00
 800155c:	603b      	str	r3, [r7, #0]
 800155e:	f895 3048 	ldrb.w	r3, [r5, #72]	; 0x48
 8001562:	2b02      	cmp	r3, #2
 8001564:	bf02      	ittt	eq
 8001566:	683b      	ldreq	r3, [r7, #0]
 8001568:	f443 6300 	orreq.w	r3, r3, #2048	; 0x800
 800156c:	603b      	streq	r3, [r7, #0]
 800156e:	683b      	ldr	r3, [r7, #0]
 8001570:	f043 0340 	orr.w	r3, r3, #64	; 0x40
 8001574:	603b      	str	r3, [r7, #0]
 8001576:	2300      	movs	r3, #0
 8001578:	469e      	mov	lr, r3
 800157a:	7872      	ldrb	r2, [r6, #1]
 800157c:	4572      	cmp	r2, lr
 800157e:	dc13      	bgt.n	80015a8 <LCD_WriteChar+0xf0>
 8001580:	68bb      	ldr	r3, [r7, #8]
 8001582:	079a      	lsls	r2, r3, #30
 8001584:	d54c      	bpl.n	8001620 <LCD_WriteChar+0x168>
 8001586:	68bb      	ldr	r3, [r7, #8]
 8001588:	061b      	lsls	r3, r3, #24
 800158a:	d44b      	bmi.n	8001624 <LCD_WriteChar+0x16c>
 800158c:	683b      	ldr	r3, [r7, #0]
 800158e:	f023 0340 	bic.w	r3, r3, #64	; 0x40
 8001592:	603b      	str	r3, [r7, #0]
 8001594:	6c2b      	ldr	r3, [r5, #64]	; 0x40
 8001596:	b113      	cbz	r3, 800159e <LCD_WriteChar+0xe6>
 8001598:	f8b5 2044 	ldrh.w	r2, [r5, #68]	; 0x44
 800159c:	619a      	str	r2, [r3, #24]
 800159e:	b007      	add	sp, #28
 80015a0:	e8bd 8ff0 	ldmia.w	sp!, {r4, r5, r6, r7, r8, r9, sl, fp, pc}
 80015a4:	2700      	movs	r7, #0
 80015a6:	e7a5      	b.n	80014f4 <LCD_WriteChar+0x3c>
 80015a8:	9902      	ldr	r1, [sp, #8]
 80015aa:	2903      	cmp	r1, #3
 80015ac:	d804      	bhi.n	80015b8 <LCD_WriteChar+0x100>
 80015ae:	e8df f001 	tbb	[pc, r1]
 80015b2:	0b02      	.short	0x0b02
 80015b4:	130d      	.short	0x130d
 80015b6:	7823      	ldrb	r3, [r4, #0]
 80015b8:	4444      	add	r4, r8
 80015ba:	2100      	movs	r1, #0
 80015bc:	7832      	ldrb	r2, [r6, #0]
 80015be:	428a      	cmp	r2, r1
 80015c0:	dc0c      	bgt.n	80015dc <LCD_WriteChar+0x124>
 80015c2:	f10e 0e01 	add.w	lr, lr, #1
 80015c6:	e7d8      	b.n	800157a <LCD_WriteChar+0xc2>
 80015c8:	8823      	ldrh	r3, [r4, #0]
 80015ca:	e7f5      	b.n	80015b8 <LCD_WriteChar+0x100>
 80015cc:	7823      	ldrb	r3, [r4, #0]
 80015ce:	f8b4 2001 	ldrh.w	r2, [r4, #1]
 80015d2:	eb03 2312 	add.w	r3, r3, r2, lsr #8
 80015d6:	e7ef      	b.n	80015b8 <LCD_WriteChar+0x100>
 80015d8:	6823      	ldr	r3, [r4, #0]
 80015da:	e7ed      	b.n	80015b8 <LCD_WriteChar+0x100>
 80015dc:	9804      	ldr	r0, [sp, #16]
 80015de:	fa03 f201 	lsl.w	r2, r3, r1
 80015e2:	4202      	tst	r2, r0
 80015e4:	bf14      	ite	ne
 80015e6:	465a      	movne	r2, fp
 80015e8:	4652      	moveq	r2, sl
 80015ea:	f8d7 c008 	ldr.w	ip, [r7, #8]
 80015ee:	f01c 0f02 	tst.w	ip, #2
 80015f2:	d007      	beq.n	8001604 <LCD_WriteChar+0x14c>
 80015f4:	f895 c048 	ldrb.w	ip, [r5, #72]	; 0x48
 80015f8:	f1bc 0f02 	cmp.w	ip, #2
 80015fc:	d104      	bne.n	8001608 <LCD_WriteChar+0x150>
 80015fe:	60fa      	str	r2, [r7, #12]
 8001600:	3101      	adds	r1, #1
 8001602:	e7db      	b.n	80015bc <LCD_WriteChar+0x104>
 8001604:	bf00      	nop
 8001606:	e7f0      	b.n	80015ea <LCD_WriteChar+0x132>
 8001608:	f3c2 2c0f 	ubfx	ip, r2, #8, #16
 800160c:	b2d2      	uxtb	r2, r2
 800160e:	60fa      	str	r2, [r7, #12]
 8001610:	68ba      	ldr	r2, [r7, #8]
 8001612:	0790      	lsls	r0, r2, #30
 8001614:	d502      	bpl.n	800161c <LCD_WriteChar+0x164>
 8001616:	f8c7 c00c 	str.w	ip, [r7, #12]
 800161a:	e7f1      	b.n	8001600 <LCD_WriteChar+0x148>
 800161c:	bf00      	nop
 800161e:	e7f7      	b.n	8001610 <LCD_WriteChar+0x158>
 8001620:	bf00      	nop
 8001622:	e7ad      	b.n	8001580 <LCD_WriteChar+0xc8>
 8001624:	bf00      	nop
 8001626:	e7ae      	b.n	8001586 <LCD_WriteChar+0xce>
 8001628:	7827      	ldrb	r7, [r4, #0]
 800162a:	eb09 020b 	add.w	r2, r9, fp
 800162e:	4444      	add	r4, r8
 8001630:	f04f 0a00 	mov.w	sl, #0
 8001634:	b212      	sxth	r2, r2
 8001636:	7833      	ldrb	r3, [r6, #0]
 8001638:	4553      	cmp	r3, sl
 800163a:	dc1d      	bgt.n	8001678 <LCD_WriteChar+0x1c0>
 800163c:	f10b 0b01 	add.w	fp, fp, #1
 8001640:	7873      	ldrb	r3, [r6, #1]
 8001642:	455b      	cmp	r3, fp
 8001644:	ddab      	ble.n	800159e <LCD_WriteChar+0xe6>
 8001646:	9a02      	ldr	r2, [sp, #8]
 8001648:	2a03      	cmp	r2, #3
 800164a:	d8ee      	bhi.n	800162a <LCD_WriteChar+0x172>
 800164c:	a301      	add	r3, pc, #4	; (adr r3, 8001654 <LCD_WriteChar+0x19c>)
 800164e:	f853 f022 	ldr.w	pc, [r3, r2, lsl #2]
 8001652:	bf00      	nop
 8001654:	08001629 	.word	0x08001629
 8001658:	08001665 	.word	0x08001665
 800165c:	08001669 	.word	0x08001669
 8001660:	08001675 	.word	0x08001675
 8001664:	8827      	ldrh	r7, [r4, #0]
 8001666:	e7e0      	b.n	800162a <LCD_WriteChar+0x172>
 8001668:	7827      	ldrb	r7, [r4, #0]
 800166a:	f8b4 3001 	ldrh.w	r3, [r4, #1]
 800166e:	eb07 2713 	add.w	r7, r7, r3, lsr #8
 8001672:	e7da      	b.n	800162a <LCD_WriteChar+0x172>
 8001674:	6827      	ldr	r7, [r4, #0]
 8001676:	e7d8      	b.n	800162a <LCD_WriteChar+0x172>
 8001678:	9904      	ldr	r1, [sp, #16]
 800167a:	fa07 f30a 	lsl.w	r3, r7, sl
 800167e:	420b      	tst	r3, r1
 8001680:	d009      	beq.n	8001696 <LCD_WriteChar+0x1de>
 8001682:	9b03      	ldr	r3, [sp, #12]
 8001684:	9205      	str	r2, [sp, #20]
 8001686:	eb03 010a 	add.w	r1, r3, sl
 800168a:	b209      	sxth	r1, r1
 800168c:	9b11      	ldr	r3, [sp, #68]	; 0x44
 800168e:	4628      	mov	r0, r5
 8001690:	f7ff fe41 	bl	8001316 <LCD_DrawPixel>
 8001694:	9a05      	ldr	r2, [sp, #20]
 8001696:	f10a 0a01 	add.w	sl, sl, #1
 800169a:	e7cc      	b.n	8001636 <LCD_WriteChar+0x17e>
 800169c:	2700      	movs	r7, #0
 800169e:	46bb      	mov	fp, r7
 80016a0:	e7ce      	b.n	8001640 <LCD_WriteChar+0x188>
 80016a2:	bf00      	nop

080016a4 <LCD_WriteString>:
 80016a4:	e92d 43f0 	stmdb	sp!, {r4, r5, r6, r7, r8, r9, lr}
 80016a8:	b085      	sub	sp, #20
 80016aa:	4605      	mov	r5, r0
 80016ac:	9e0c      	ldr	r6, [sp, #48]	; 0x30
 80016ae:	f89d 703c 	ldrb.w	r7, [sp, #60]	; 0x3c
 80016b2:	460c      	mov	r4, r1
 80016b4:	4690      	mov	r8, r2
 80016b6:	f103 39ff 	add.w	r9, r3, #4294967295
 80016ba:	f819 3f01 	ldrb.w	r3, [r9, #1]!
 80016be:	b92b      	cbnz	r3, 80016cc <LCD_WriteString+0x28>
 80016c0:	81ec      	strh	r4, [r5, #14]
 80016c2:	f8a5 8010 	strh.w	r8, [r5, #16]
 80016c6:	b005      	add	sp, #20
 80016c8:	e8bd 83f0 	ldmia.w	sp!, {r4, r5, r6, r7, r8, r9, pc}
 80016cc:	7832      	ldrb	r2, [r6, #0]
 80016ce:	88a9      	ldrh	r1, [r5, #4]
 80016d0:	4422      	add	r2, r4
 80016d2:	428a      	cmp	r2, r1
 80016d4:	dd0b      	ble.n	80016ee <LCD_WriteString+0x4a>
 80016d6:	7871      	ldrb	r1, [r6, #1]
 80016d8:	eb08 0201 	add.w	r2, r8, r1
 80016dc:	fa1f f882 	uxth.w	r8, r2
 80016e0:	fa11 f282 	uxtah	r2, r1, r2
 80016e4:	88e9      	ldrh	r1, [r5, #6]
 80016e6:	428a      	cmp	r2, r1
 80016e8:	f04f 0400 	mov.w	r4, #0
 80016ec:	dce8      	bgt.n	80016c0 <LCD_WriteString+0x1c>
 80016ee:	9a0e      	ldr	r2, [sp, #56]	; 0x38
 80016f0:	9202      	str	r2, [sp, #8]
 80016f2:	9a0d      	ldr	r2, [sp, #52]	; 0x34
 80016f4:	9703      	str	r7, [sp, #12]
 80016f6:	e9cd 6200 	strd	r6, r2, [sp]
 80016fa:	4621      	mov	r1, r4
 80016fc:	4642      	mov	r2, r8
 80016fe:	4628      	mov	r0, r5
 8001700:	f7ff feda 	bl	80014b8 <LCD_WriteChar>
 8001704:	7833      	ldrb	r3, [r6, #0]
 8001706:	4423      	add	r3, r4
 8001708:	b29c      	uxth	r4, r3
 800170a:	e7d6      	b.n	80016ba <LCD_WriteString+0x16>

0800170c <ST7789_Init>:
 800170c:	3801      	subs	r0, #1
 800170e:	b2c0      	uxtb	r0, r0
 8001710:	2802      	cmp	r0, #2
 8001712:	bf9c      	itt	ls
 8001714:	4b03      	ldrls	r3, [pc, #12]	; (8001724 <ST7789_Init+0x18>)
 8001716:	5c1b      	ldrbls	r3, [r3, r0]
 8001718:	4803      	ldr	r0, [pc, #12]	; (8001728 <ST7789_Init+0x1c>)
 800171a:	bf88      	it	hi
 800171c:	2300      	movhi	r3, #0
 800171e:	75c3      	strb	r3, [r0, #23]
 8001720:	4770      	bx	lr
 8001722:	bf00      	nop
 8001724:	08006d1a 	.word	0x08006d1a
 8001728:	20000010 	.word	0x20000010

0800172c <ST7789_SetWindow>:
 800172c:	b530      	push	{r4, r5, lr}
 800172e:	4c07      	ldr	r4, [pc, #28]	; (800174c <ST7789_SetWindow+0x20>)
 8001730:	0a05      	lsrs	r5, r0, #8
 8001732:	7120      	strb	r0, [r4, #4]
 8001734:	71a2      	strb	r2, [r4, #6]
 8001736:	0a10      	lsrs	r0, r2, #8
 8001738:	0a0a      	lsrs	r2, r1, #8
 800173a:	72a2      	strb	r2, [r4, #10]
 800173c:	0a1a      	lsrs	r2, r3, #8
 800173e:	7160      	strb	r0, [r4, #5]
 8001740:	70e5      	strb	r5, [r4, #3]
 8001742:	72e1      	strb	r1, [r4, #11]
 8001744:	7322      	strb	r2, [r4, #12]
 8001746:	7363      	strb	r3, [r4, #13]
 8001748:	4620      	mov	r0, r4
 800174a:	bd30      	pop	{r4, r5, pc}
 800174c:	2000007d 	.word	0x2000007d

08001750 <ST7789_SleepIn>:
 8001750:	4800      	ldr	r0, [pc, #0]	; (8001754 <ST7789_SleepIn+0x4>)
 8001752:	4770      	bx	lr
 8001754:	2000008f 	.word	0x2000008f

08001758 <ST7789_SleepOut>:
 8001758:	4800      	ldr	r0, [pc, #0]	; (800175c <ST7789_SleepOut+0x4>)
 800175a:	4770      	bx	lr
 800175c:	20000095 	.word	0x20000095

08001760 <HAL_InitTick>:
 8001760:	b538      	push	{r3, r4, r5, lr}
 8001762:	4b0e      	ldr	r3, [pc, #56]	; (800179c <HAL_InitTick+0x3c>)
 8001764:	781a      	ldrb	r2, [r3, #0]
 8001766:	f44f 737a 	mov.w	r3, #1000	; 0x3e8
 800176a:	fbb3 f3f2 	udiv	r3, r3, r2
 800176e:	4a0c      	ldr	r2, [pc, #48]	; (80017a0 <HAL_InitTick+0x40>)
 8001770:	4605      	mov	r5, r0
 8001772:	6810      	ldr	r0, [r2, #0]
 8001774:	fbb0 f0f3 	udiv	r0, r0, r3
 8001778:	f000 f880 	bl	800187c <HAL_SYSTICK_Config>
 800177c:	4604      	mov	r4, r0
 800177e:	b958      	cbnz	r0, 8001798 <HAL_InitTick+0x38>
 8001780:	2d0f      	cmp	r5, #15
 8001782:	d809      	bhi.n	8001798 <HAL_InitTick+0x38>
 8001784:	4602      	mov	r2, r0
 8001786:	4629      	mov	r1, r5
 8001788:	f04f 30ff 	mov.w	r0, #4294967295
 800178c:	f000 f844 	bl	8001818 <HAL_NVIC_SetPriority>
 8001790:	4b04      	ldr	r3, [pc, #16]	; (80017a4 <HAL_InitTick+0x44>)
 8001792:	4620      	mov	r0, r4
 8001794:	601d      	str	r5, [r3, #0]
 8001796:	bd38      	pop	{r3, r4, r5, pc}
 8001798:	2001      	movs	r0, #1
 800179a:	e7fc      	b.n	8001796 <HAL_InitTick+0x36>
 800179c:	2000009b 	.word	0x2000009b
 80017a0:	20000000 	.word	0x20000000
 80017a4:	2000009c 	.word	0x2000009c

080017a8 <HAL_Init>:
 80017a8:	b508      	push	{r3, lr}
 80017aa:	4b0b      	ldr	r3, [pc, #44]	; (80017d8 <HAL_Init+0x30>)
 80017ac:	681a      	ldr	r2, [r3, #0]
 80017ae:	f442 7200 	orr.w	r2, r2, #512	; 0x200
 80017b2:	601a      	str	r2, [r3, #0]
 80017b4:	681a      	ldr	r2, [r3, #0]
 80017b6:	f442 6280 	orr.w	r2, r2, #1024	; 0x400
 80017ba:	601a      	str	r2, [r3, #0]
 80017bc:	681a      	ldr	r2, [r3, #0]
 80017be:	f442 7280 	orr.w	r2, r2, #256	; 0x100
 80017c2:	601a      	str	r2, [r3, #0]
 80017c4:	2003      	movs	r0, #3
 80017c6:	f000 f815 	bl	80017f4 <HAL_NVIC_SetPriorityGrouping>
 80017ca:	200f      	movs	r0, #15
 80017cc:	f7ff ffc8 	bl	8001760 <HAL_InitTick>
 80017d0:	f7ff f8c0 	bl	8000954 <HAL_MspInit>
 80017d4:	2000      	movs	r0, #0
 80017d6:	bd08      	pop	{r3, pc}
 80017d8:	40023c00 	.word	0x40023c00

080017dc <HAL_IncTick>:
 80017dc:	4a03      	ldr	r2, [pc, #12]	; (80017ec <HAL_IncTick+0x10>)
 80017de:	4b04      	ldr	r3, [pc, #16]	; (80017f0 <HAL_IncTick+0x14>)
 80017e0:	6811      	ldr	r1, [r2, #0]
 80017e2:	781b      	ldrb	r3, [r3, #0]
 80017e4:	440b      	add	r3, r1
 80017e6:	6013      	str	r3, [r2, #0]
 80017e8:	4770      	bx	lr
 80017ea:	bf00      	nop
 80017ec:	2000012c 	.word	0x2000012c
 80017f0:	2000009b 	.word	0x2000009b

080017f4 <HAL_NVIC_SetPriorityGrouping>:
 80017f4:	4907      	ldr	r1, [pc, #28]	; (8001814 <HAL_NVIC_SetPriorityGrouping+0x20>)
 80017f6:	68ca      	ldr	r2, [r1, #12]
 80017f8:	f422 62e0 	bic.w	r2, r2, #1792	; 0x700
 80017fc:	0203      	lsls	r3, r0, #8
 80017fe:	0412      	lsls	r2, r2, #16
 8001800:	f403 63e0 	and.w	r3, r3, #1792	; 0x700
 8001804:	0c12      	lsrs	r2, r2, #16
 8001806:	4313      	orrs	r3, r2
 8001808:	f043 63bf 	orr.w	r3, r3, #100139008	; 0x5f80000
 800180c:	f443 3300 	orr.w	r3, r3, #131072	; 0x20000
 8001810:	60cb      	str	r3, [r1, #12]
 8001812:	4770      	bx	lr
 8001814:	e000ed00 	.word	0xe000ed00

08001818 <HAL_NVIC_SetPriority>:
 8001818:	4b16      	ldr	r3, [pc, #88]	; (8001874 <HAL_NVIC_SetPriority+0x5c>)
 800181a:	b530      	push	{r4, r5, lr}
 800181c:	68dc      	ldr	r4, [r3, #12]
 800181e:	f3c4 2402 	ubfx	r4, r4, #8, #3
 8001822:	f1c4 0307 	rsb	r3, r4, #7
 8001826:	1d25      	adds	r5, r4, #4
 8001828:	2b04      	cmp	r3, #4
 800182a:	bf28      	it	cs
 800182c:	2304      	movcs	r3, #4
 800182e:	2d06      	cmp	r5, #6
 8001830:	f04f 35ff 	mov.w	r5, #4294967295
 8001834:	bf8c      	ite	hi
 8001836:	3c03      	subhi	r4, #3
 8001838:	2400      	movls	r4, #0
 800183a:	fa05 f303 	lsl.w	r3, r5, r3
 800183e:	ea21 0303 	bic.w	r3, r1, r3
 8001842:	40a5      	lsls	r5, r4
 8001844:	ea22 0205 	bic.w	r2, r2, r5
 8001848:	40a3      	lsls	r3, r4
 800184a:	2800      	cmp	r0, #0
 800184c:	ea43 0302 	orr.w	r3, r3, r2
 8001850:	bfac      	ite	ge
 8001852:	f100 4060 	addge.w	r0, r0, #3758096384	; 0xe0000000
 8001856:	4a08      	ldrlt	r2, [pc, #32]	; (8001878 <HAL_NVIC_SetPriority+0x60>)
 8001858:	ea4f 1303 	mov.w	r3, r3, lsl #4
 800185c:	bfb8      	it	lt
 800185e:	f000 000f 	andlt.w	r0, r0, #15
 8001862:	b2db      	uxtb	r3, r3
 8001864:	bfaa      	itet	ge
 8001866:	f500 4061 	addge.w	r0, r0, #57600	; 0xe100
 800186a:	5413      	strblt	r3, [r2, r0]
 800186c:	f880 3300 	strbge.w	r3, [r0, #768]	; 0x300
 8001870:	bd30      	pop	{r4, r5, pc}
 8001872:	bf00      	nop
 8001874:	e000ed00 	.word	0xe000ed00
 8001878:	e000ed14 	.word	0xe000ed14

0800187c <HAL_SYSTICK_Config>:
 800187c:	3801      	subs	r0, #1
 800187e:	f1b0 7f80 	cmp.w	r0, #16777216	; 0x1000000
 8001882:	d20b      	bcs.n	800189c <HAL_SYSTICK_Config+0x20>
 8001884:	f04f 23e0 	mov.w	r3, #3758153728	; 0xe000e000
 8001888:	4a05      	ldr	r2, [pc, #20]	; (80018a0 <HAL_SYSTICK_Config+0x24>)
 800188a:	6158      	str	r0, [r3, #20]
 800188c:	21f0      	movs	r1, #240	; 0xf0
 800188e:	f882 1023 	strb.w	r1, [r2, #35]	; 0x23
 8001892:	2000      	movs	r0, #0
 8001894:	2207      	movs	r2, #7
 8001896:	6198      	str	r0, [r3, #24]
 8001898:	611a      	str	r2, [r3, #16]
 800189a:	4770      	bx	lr
 800189c:	2001      	movs	r0, #1
 800189e:	4770      	bx	lr
 80018a0:	e000ed00 	.word	0xe000ed00

080018a4 <LL_GPIO_Init>:
 80018a4:	e92d 47f0 	stmdb	sp!, {r4, r5, r6, r7, r8, r9, sl, lr}
 80018a8:	4602      	mov	r2, r0
 80018aa:	680d      	ldr	r5, [r1, #0]
 80018ac:	fa95 f4a5 	rbit	r4, r5
 80018b0:	f04f 0e01 	mov.w	lr, #1
 80018b4:	fab4 f484 	clz	r4, r4
 80018b8:	2603      	movs	r6, #3
 80018ba:	f04f 0c0f 	mov.w	ip, #15
 80018be:	fa35 f004 	lsrs.w	r0, r5, r4
 80018c2:	d101      	bne.n	80018c8 <LL_GPIO_Init+0x24>
 80018c4:	e8bd 87f0 	ldmia.w	sp!, {r4, r5, r6, r7, r8, r9, sl, pc}
 80018c8:	fa0e f304 	lsl.w	r3, lr, r4
 80018cc:	402b      	ands	r3, r5
 80018ce:	d06d      	beq.n	80019ac <LL_GPIO_Init+0x108>
 80018d0:	6848      	ldr	r0, [r1, #4]
 80018d2:	1e47      	subs	r7, r0, #1
 80018d4:	2f01      	cmp	r7, #1
 80018d6:	d81e      	bhi.n	8001916 <LL_GPIO_Init+0x72>
 80018d8:	f8d2 8008 	ldr.w	r8, [r2, #8]
 80018dc:	fa93 f7a3 	rbit	r7, r3
 80018e0:	fab7 f787 	clz	r7, r7
 80018e4:	fa93 f9a3 	rbit	r9, r3
 80018e8:	007f      	lsls	r7, r7, #1
 80018ea:	fa06 f707 	lsl.w	r7, r6, r7
 80018ee:	ea28 0807 	bic.w	r8, r8, r7
 80018f2:	fab9 f989 	clz	r9, r9
 80018f6:	688f      	ldr	r7, [r1, #8]
 80018f8:	ea4f 0949 	mov.w	r9, r9, lsl #1
 80018fc:	fa07 f709 	lsl.w	r7, r7, r9
 8001900:	ea48 0707 	orr.w	r7, r8, r7
 8001904:	6097      	str	r7, [r2, #8]
 8001906:	6857      	ldr	r7, [r2, #4]
 8001908:	ea27 0803 	bic.w	r8, r7, r3
 800190c:	68cf      	ldr	r7, [r1, #12]
 800190e:	435f      	muls	r7, r3
 8001910:	ea48 0707 	orr.w	r7, r8, r7
 8001914:	6057      	str	r7, [r2, #4]
 8001916:	f8d2 800c 	ldr.w	r8, [r2, #12]
 800191a:	fa93 f7a3 	rbit	r7, r3
 800191e:	fab7 f787 	clz	r7, r7
 8001922:	fa93 f9a3 	rbit	r9, r3
 8001926:	007f      	lsls	r7, r7, #1
 8001928:	fa06 f707 	lsl.w	r7, r6, r7
 800192c:	ea28 0807 	bic.w	r8, r8, r7
 8001930:	fab9 f989 	clz	r9, r9
 8001934:	690f      	ldr	r7, [r1, #16]
 8001936:	ea4f 0949 	mov.w	r9, r9, lsl #1
 800193a:	fa07 f709 	lsl.w	r7, r7, r9
 800193e:	ea48 0707 	orr.w	r7, r8, r7
 8001942:	2802      	cmp	r0, #2
 8001944:	60d7      	str	r7, [r2, #12]
 8001946:	d11d      	bne.n	8001984 <LL_GPIO_Init+0xe0>
 8001948:	fa93 f7a3 	rbit	r7, r3
 800194c:	fab7 f787 	clz	r7, r7
 8001950:	2f07      	cmp	r7, #7
 8001952:	f8d1 9014 	ldr.w	r9, [r1, #20]
 8001956:	dc2b      	bgt.n	80019b0 <LL_GPIO_Init+0x10c>
 8001958:	f8d2 a020 	ldr.w	sl, [r2, #32]
 800195c:	fa93 f8a3 	rbit	r8, r3
 8001960:	fab8 f888 	clz	r8, r8
 8001964:	fa93 f7a3 	rbit	r7, r3
 8001968:	fab7 f787 	clz	r7, r7
 800196c:	ea4f 0888 	mov.w	r8, r8, lsl #2
 8001970:	fa0c f808 	lsl.w	r8, ip, r8
 8001974:	00bf      	lsls	r7, r7, #2
 8001976:	ea2a 0a08 	bic.w	sl, sl, r8
 800197a:	fa09 f707 	lsl.w	r7, r9, r7
 800197e:	ea4a 0707 	orr.w	r7, sl, r7
 8001982:	6217      	str	r7, [r2, #32]
 8001984:	f8d2 8000 	ldr.w	r8, [r2]
 8001988:	fa93 f7a3 	rbit	r7, r3
 800198c:	fab7 f787 	clz	r7, r7
 8001990:	fa93 f3a3 	rbit	r3, r3
 8001994:	fab3 f383 	clz	r3, r3
 8001998:	007f      	lsls	r7, r7, #1
 800199a:	fa06 f707 	lsl.w	r7, r6, r7
 800199e:	005b      	lsls	r3, r3, #1
 80019a0:	ea28 0807 	bic.w	r8, r8, r7
 80019a4:	4098      	lsls	r0, r3
 80019a6:	ea48 0000 	orr.w	r0, r8, r0
 80019aa:	6010      	str	r0, [r2, #0]
 80019ac:	3401      	adds	r4, #1
 80019ae:	e786      	b.n	80018be <LL_GPIO_Init+0x1a>
 80019b0:	f8d2 8024 	ldr.w	r8, [r2, #36]	; 0x24
 80019b4:	0a1f      	lsrs	r7, r3, #8
 80019b6:	fa97 faa7 	rbit	sl, r7
 80019ba:	faba fa8a 	clz	sl, sl
 80019be:	fa97 f7a7 	rbit	r7, r7
 80019c2:	fab7 f787 	clz	r7, r7
 80019c6:	ea4f 0a8a 	mov.w	sl, sl, lsl #2
 80019ca:	00bf      	lsls	r7, r7, #2
 80019cc:	fa0c fa0a 	lsl.w	sl, ip, sl
 80019d0:	ea28 080a 	bic.w	r8, r8, sl
 80019d4:	fa09 f907 	lsl.w	r9, r9, r7
 80019d8:	ea48 0709 	orr.w	r7, r8, r9
 80019dc:	6257      	str	r7, [r2, #36]	; 0x24
 80019de:	e7d1      	b.n	8001984 <LL_GPIO_Init+0xe0>

080019e0 <LL_SPI_Init>:
 80019e0:	4602      	mov	r2, r0
 80019e2:	6800      	ldr	r0, [r0, #0]
 80019e4:	f010 0040 	ands.w	r0, r0, #64	; 0x40
 80019e8:	b5f0      	push	{r4, r5, r6, r7, lr}
 80019ea:	d127      	bne.n	8001a3c <LL_SPI_Init+0x5c>
 80019ec:	e9d1 3700 	ldrd	r3, r7, [r1]
 80019f0:	433b      	orrs	r3, r7
 80019f2:	688f      	ldr	r7, [r1, #8]
 80019f4:	694d      	ldr	r5, [r1, #20]
 80019f6:	6816      	ldr	r6, [r2, #0]
 80019f8:	6a0c      	ldr	r4, [r1, #32]
 80019fa:	433b      	orrs	r3, r7
 80019fc:	68cf      	ldr	r7, [r1, #12]
 80019fe:	433b      	orrs	r3, r7
 8001a00:	690f      	ldr	r7, [r1, #16]
 8001a02:	433b      	orrs	r3, r7
 8001a04:	698f      	ldr	r7, [r1, #24]
 8001a06:	432b      	orrs	r3, r5
 8001a08:	433b      	orrs	r3, r7
 8001a0a:	69cf      	ldr	r7, [r1, #28]
 8001a0c:	f426 467f 	bic.w	r6, r6, #65280	; 0xff00
 8001a10:	433b      	orrs	r3, r7
 8001a12:	4323      	orrs	r3, r4
 8001a14:	f026 06bf 	bic.w	r6, r6, #191	; 0xbf
 8001a18:	4333      	orrs	r3, r6
 8001a1a:	6013      	str	r3, [r2, #0]
 8001a1c:	6853      	ldr	r3, [r2, #4]
 8001a1e:	f023 0304 	bic.w	r3, r3, #4
 8001a22:	ea43 4315 	orr.w	r3, r3, r5, lsr #16
 8001a26:	f5b4 5f00 	cmp.w	r4, #8192	; 0x2000
 8001a2a:	6053      	str	r3, [r2, #4]
 8001a2c:	d101      	bne.n	8001a32 <LL_SPI_Init+0x52>
 8001a2e:	8c8b      	ldrh	r3, [r1, #36]	; 0x24
 8001a30:	6113      	str	r3, [r2, #16]
 8001a32:	69d3      	ldr	r3, [r2, #28]
 8001a34:	f423 6300 	bic.w	r3, r3, #2048	; 0x800
 8001a38:	61d3      	str	r3, [r2, #28]
 8001a3a:	bdf0      	pop	{r4, r5, r6, r7, pc}
 8001a3c:	2001      	movs	r0, #1
 8001a3e:	e7f8      	b.n	8001a32 <LL_SPI_Init+0x52>

08001a40 <LL_TIM_Init>:
 8001a40:	4a23      	ldr	r2, [pc, #140]	; (8001ad0 <LL_TIM_Init+0x90>)
 8001a42:	6803      	ldr	r3, [r0, #0]
 8001a44:	4290      	cmp	r0, r2
 8001a46:	d00e      	beq.n	8001a66 <LL_TIM_Init+0x26>
 8001a48:	f1b0 4f80 	cmp.w	r0, #1073741824	; 0x40000000
 8001a4c:	d00b      	beq.n	8001a66 <LL_TIM_Init+0x26>
 8001a4e:	f5a2 427c 	sub.w	r2, r2, #64512	; 0xfc00
 8001a52:	4290      	cmp	r0, r2
 8001a54:	d007      	beq.n	8001a66 <LL_TIM_Init+0x26>
 8001a56:	f502 6280 	add.w	r2, r2, #1024	; 0x400
 8001a5a:	4290      	cmp	r0, r2
 8001a5c:	d003      	beq.n	8001a66 <LL_TIM_Init+0x26>
 8001a5e:	f502 6280 	add.w	r2, r2, #1024	; 0x400
 8001a62:	4290      	cmp	r0, r2
 8001a64:	d115      	bne.n	8001a92 <LL_TIM_Init+0x52>
 8001a66:	684a      	ldr	r2, [r1, #4]
 8001a68:	f023 0370 	bic.w	r3, r3, #112	; 0x70
 8001a6c:	4313      	orrs	r3, r2
 8001a6e:	4a18      	ldr	r2, [pc, #96]	; (8001ad0 <LL_TIM_Init+0x90>)
 8001a70:	4290      	cmp	r0, r2
 8001a72:	d019      	beq.n	8001aa8 <LL_TIM_Init+0x68>
 8001a74:	f1b0 4f80 	cmp.w	r0, #1073741824	; 0x40000000
 8001a78:	d016      	beq.n	8001aa8 <LL_TIM_Init+0x68>
 8001a7a:	f5a2 427c 	sub.w	r2, r2, #64512	; 0xfc00
 8001a7e:	4290      	cmp	r0, r2
 8001a80:	d012      	beq.n	8001aa8 <LL_TIM_Init+0x68>
 8001a82:	f502 6280 	add.w	r2, r2, #1024	; 0x400
 8001a86:	4290      	cmp	r0, r2
 8001a88:	d00e      	beq.n	8001aa8 <LL_TIM_Init+0x68>
 8001a8a:	f502 6280 	add.w	r2, r2, #1024	; 0x400
 8001a8e:	4290      	cmp	r0, r2
 8001a90:	d00a      	beq.n	8001aa8 <LL_TIM_Init+0x68>
 8001a92:	4a10      	ldr	r2, [pc, #64]	; (8001ad4 <LL_TIM_Init+0x94>)
 8001a94:	4290      	cmp	r0, r2
 8001a96:	d007      	beq.n	8001aa8 <LL_TIM_Init+0x68>
 8001a98:	f502 6280 	add.w	r2, r2, #1024	; 0x400
 8001a9c:	4290      	cmp	r0, r2
 8001a9e:	d003      	beq.n	8001aa8 <LL_TIM_Init+0x68>
 8001aa0:	f502 6280 	add.w	r2, r2, #1024	; 0x400
 8001aa4:	4290      	cmp	r0, r2
 8001aa6:	d103      	bne.n	8001ab0 <LL_TIM_Init+0x70>
 8001aa8:	68ca      	ldr	r2, [r1, #12]
 8001aaa:	f423 7340 	bic.w	r3, r3, #768	; 0x300
 8001aae:	4313      	orrs	r3, r2
 8001ab0:	6003      	str	r3, [r0, #0]
 8001ab2:	688b      	ldr	r3, [r1, #8]
 8001ab4:	62c3      	str	r3, [r0, #44]	; 0x2c
 8001ab6:	880b      	ldrh	r3, [r1, #0]
 8001ab8:	6283      	str	r3, [r0, #40]	; 0x28
 8001aba:	4b05      	ldr	r3, [pc, #20]	; (8001ad0 <LL_TIM_Init+0x90>)
 8001abc:	4298      	cmp	r0, r3
 8001abe:	bf04      	itt	eq
 8001ac0:	690b      	ldreq	r3, [r1, #16]
 8001ac2:	6303      	streq	r3, [r0, #48]	; 0x30
 8001ac4:	6943      	ldr	r3, [r0, #20]
 8001ac6:	f043 0301 	orr.w	r3, r3, #1
 8001aca:	6143      	str	r3, [r0, #20]
 8001acc:	2000      	movs	r0, #0
 8001ace:	4770      	bx	lr
 8001ad0:	40010000 	.word	0x40010000
 8001ad4:	40014000 	.word	0x40014000

08001ad8 <LL_TIM_OC_Init>:
 8001ad8:	f5b1 7f80 	cmp.w	r1, #256	; 0x100
 8001adc:	b530      	push	{r4, r5, lr}
 8001ade:	f000 8090 	beq.w	8001c02 <LL_TIM_OC_Init+0x12a>
 8001ae2:	d805      	bhi.n	8001af0 <LL_TIM_OC_Init+0x18>
 8001ae4:	2901      	cmp	r1, #1
 8001ae6:	d02a      	beq.n	8001b3e <LL_TIM_OC_Init+0x66>
 8001ae8:	2910      	cmp	r1, #16
 8001aea:	d058      	beq.n	8001b9e <LL_TIM_OC_Init+0xc6>
 8001aec:	2001      	movs	r0, #1
 8001aee:	bd30      	pop	{r4, r5, pc}
 8001af0:	f5b1 5f80 	cmp.w	r1, #4096	; 0x1000
 8001af4:	d1fa      	bne.n	8001aec <LL_TIM_OC_Init+0x14>
 8001af6:	6a03      	ldr	r3, [r0, #32]
 8001af8:	6815      	ldr	r5, [r2, #0]
 8001afa:	f423 5380 	bic.w	r3, r3, #4096	; 0x1000
 8001afe:	6203      	str	r3, [r0, #32]
 8001b00:	6a03      	ldr	r3, [r0, #32]
 8001b02:	6844      	ldr	r4, [r0, #4]
 8001b04:	69c1      	ldr	r1, [r0, #28]
 8001b06:	f421 41e6 	bic.w	r1, r1, #29440	; 0x7300
 8001b0a:	ea41 2105 	orr.w	r1, r1, r5, lsl #8
 8001b0e:	6915      	ldr	r5, [r2, #16]
 8001b10:	f423 5300 	bic.w	r3, r3, #8192	; 0x2000
 8001b14:	ea43 3305 	orr.w	r3, r3, r5, lsl #12
 8001b18:	6855      	ldr	r5, [r2, #4]
 8001b1a:	f423 5380 	bic.w	r3, r3, #4096	; 0x1000
 8001b1e:	ea43 3305 	orr.w	r3, r3, r5, lsl #12
 8001b22:	4d50      	ldr	r5, [pc, #320]	; (8001c64 <LL_TIM_OC_Init+0x18c>)
 8001b24:	42a8      	cmp	r0, r5
 8001b26:	bf08      	it	eq
 8001b28:	6995      	ldreq	r5, [r2, #24]
 8001b2a:	68d2      	ldr	r2, [r2, #12]
 8001b2c:	bf04      	itt	eq
 8001b2e:	f424 4480 	biceq.w	r4, r4, #16384	; 0x4000
 8001b32:	ea44 1485 	orreq.w	r4, r4, r5, lsl #6
 8001b36:	6044      	str	r4, [r0, #4]
 8001b38:	61c1      	str	r1, [r0, #28]
 8001b3a:	6402      	str	r2, [r0, #64]	; 0x40
 8001b3c:	e02c      	b.n	8001b98 <LL_TIM_OC_Init+0xc0>
 8001b3e:	6a03      	ldr	r3, [r0, #32]
 8001b40:	6815      	ldr	r5, [r2, #0]
 8001b42:	f023 0301 	bic.w	r3, r3, #1
 8001b46:	6203      	str	r3, [r0, #32]
 8001b48:	6a03      	ldr	r3, [r0, #32]
 8001b4a:	6841      	ldr	r1, [r0, #4]
 8001b4c:	6984      	ldr	r4, [r0, #24]
 8001b4e:	f024 0473 	bic.w	r4, r4, #115	; 0x73
 8001b52:	432c      	orrs	r4, r5
 8001b54:	6915      	ldr	r5, [r2, #16]
 8001b56:	f023 0302 	bic.w	r3, r3, #2
 8001b5a:	432b      	orrs	r3, r5
 8001b5c:	6855      	ldr	r5, [r2, #4]
 8001b5e:	f023 0301 	bic.w	r3, r3, #1
 8001b62:	432b      	orrs	r3, r5
 8001b64:	4d3f      	ldr	r5, [pc, #252]	; (8001c64 <LL_TIM_OC_Init+0x18c>)
 8001b66:	42a8      	cmp	r0, r5
 8001b68:	d112      	bne.n	8001b90 <LL_TIM_OC_Init+0xb8>
 8001b6a:	6955      	ldr	r5, [r2, #20]
 8001b6c:	f023 0308 	bic.w	r3, r3, #8
 8001b70:	ea43 0385 	orr.w	r3, r3, r5, lsl #2
 8001b74:	6895      	ldr	r5, [r2, #8]
 8001b76:	f023 0304 	bic.w	r3, r3, #4
 8001b7a:	ea43 0385 	orr.w	r3, r3, r5, lsl #2
 8001b7e:	6995      	ldr	r5, [r2, #24]
 8001b80:	f421 7180 	bic.w	r1, r1, #256	; 0x100
 8001b84:	4329      	orrs	r1, r5
 8001b86:	69d5      	ldr	r5, [r2, #28]
 8001b88:	f421 7100 	bic.w	r1, r1, #512	; 0x200
 8001b8c:	ea41 0145 	orr.w	r1, r1, r5, lsl #1
 8001b90:	68d2      	ldr	r2, [r2, #12]
 8001b92:	6041      	str	r1, [r0, #4]
 8001b94:	6184      	str	r4, [r0, #24]
 8001b96:	6342      	str	r2, [r0, #52]	; 0x34
 8001b98:	6203      	str	r3, [r0, #32]
 8001b9a:	2000      	movs	r0, #0
 8001b9c:	e7a7      	b.n	8001aee <LL_TIM_OC_Init+0x16>
 8001b9e:	6a03      	ldr	r3, [r0, #32]
 8001ba0:	6815      	ldr	r5, [r2, #0]
 8001ba2:	f023 0310 	bic.w	r3, r3, #16
 8001ba6:	6203      	str	r3, [r0, #32]
 8001ba8:	6a03      	ldr	r3, [r0, #32]
 8001baa:	6841      	ldr	r1, [r0, #4]
 8001bac:	6984      	ldr	r4, [r0, #24]
 8001bae:	f424 44e6 	bic.w	r4, r4, #29440	; 0x7300
 8001bb2:	ea44 2405 	orr.w	r4, r4, r5, lsl #8
 8001bb6:	6915      	ldr	r5, [r2, #16]
 8001bb8:	f023 0320 	bic.w	r3, r3, #32
 8001bbc:	ea43 1305 	orr.w	r3, r3, r5, lsl #4
 8001bc0:	6855      	ldr	r5, [r2, #4]
 8001bc2:	f023 0310 	bic.w	r3, r3, #16
 8001bc6:	ea43 1305 	orr.w	r3, r3, r5, lsl #4
 8001bca:	4d26      	ldr	r5, [pc, #152]	; (8001c64 <LL_TIM_OC_Init+0x18c>)
 8001bcc:	42a8      	cmp	r0, r5
 8001bce:	d113      	bne.n	8001bf8 <LL_TIM_OC_Init+0x120>
 8001bd0:	6955      	ldr	r5, [r2, #20]
 8001bd2:	f023 0380 	bic.w	r3, r3, #128	; 0x80
 8001bd6:	ea43 1385 	orr.w	r3, r3, r5, lsl #6
 8001bda:	6895      	ldr	r5, [r2, #8]
 8001bdc:	f023 0340 	bic.w	r3, r3, #64	; 0x40
 8001be0:	ea43 1385 	orr.w	r3, r3, r5, lsl #6
 8001be4:	6995      	ldr	r5, [r2, #24]
 8001be6:	f421 6180 	bic.w	r1, r1, #1024	; 0x400
 8001bea:	ea41 0185 	orr.w	r1, r1, r5, lsl #2
 8001bee:	69d5      	ldr	r5, [r2, #28]
 8001bf0:	f421 6100 	bic.w	r1, r1, #2048	; 0x800
 8001bf4:	ea41 01c5 	orr.w	r1, r1, r5, lsl #3
 8001bf8:	68d2      	ldr	r2, [r2, #12]
 8001bfa:	6041      	str	r1, [r0, #4]
 8001bfc:	6184      	str	r4, [r0, #24]
 8001bfe:	6382      	str	r2, [r0, #56]	; 0x38
 8001c00:	e7ca      	b.n	8001b98 <LL_TIM_OC_Init+0xc0>
 8001c02:	6a03      	ldr	r3, [r0, #32]
 8001c04:	6815      	ldr	r5, [r2, #0]
 8001c06:	f423 7380 	bic.w	r3, r3, #256	; 0x100
 8001c0a:	6203      	str	r3, [r0, #32]
 8001c0c:	6a03      	ldr	r3, [r0, #32]
 8001c0e:	6841      	ldr	r1, [r0, #4]
 8001c10:	69c4      	ldr	r4, [r0, #28]
 8001c12:	f024 0473 	bic.w	r4, r4, #115	; 0x73
 8001c16:	432c      	orrs	r4, r5
 8001c18:	6915      	ldr	r5, [r2, #16]
 8001c1a:	f423 7300 	bic.w	r3, r3, #512	; 0x200
 8001c1e:	ea43 2305 	orr.w	r3, r3, r5, lsl #8
 8001c22:	6855      	ldr	r5, [r2, #4]
 8001c24:	f423 7380 	bic.w	r3, r3, #256	; 0x100
 8001c28:	ea43 2305 	orr.w	r3, r3, r5, lsl #8
 8001c2c:	4d0d      	ldr	r5, [pc, #52]	; (8001c64 <LL_TIM_OC_Init+0x18c>)
 8001c2e:	42a8      	cmp	r0, r5
 8001c30:	d113      	bne.n	8001c5a <LL_TIM_OC_Init+0x182>
 8001c32:	6955      	ldr	r5, [r2, #20]
 8001c34:	f423 6300 	bic.w	r3, r3, #2048	; 0x800
 8001c38:	ea43 2385 	orr.w	r3, r3, r5, lsl #10
 8001c3c:	6895      	ldr	r5, [r2, #8]
 8001c3e:	f423 6380 	bic.w	r3, r3, #1024	; 0x400
 8001c42:	ea43 2385 	orr.w	r3, r3, r5, lsl #10
 8001c46:	6995      	ldr	r5, [r2, #24]
 8001c48:	f421 5180 	bic.w	r1, r1, #4096	; 0x1000
 8001c4c:	ea41 1105 	orr.w	r1, r1, r5, lsl #4
 8001c50:	69d5      	ldr	r5, [r2, #28]
 8001c52:	f421 5100 	bic.w	r1, r1, #8192	; 0x2000
 8001c56:	ea41 1145 	orr.w	r1, r1, r5, lsl #5
 8001c5a:	68d2      	ldr	r2, [r2, #12]
 8001c5c:	6041      	str	r1, [r0, #4]
 8001c5e:	61c4      	str	r4, [r0, #28]
 8001c60:	63c2      	str	r2, [r0, #60]	; 0x3c
 8001c62:	e799      	b.n	8001b98 <LL_TIM_OC_Init+0xc0>
 8001c64:	40010000 	.word	0x40010000

08001c68 <LL_mDelay>:
 8001c68:	f04f 23e0 	mov.w	r3, #3758153728	; 0xe000e000
 8001c6c:	b082      	sub	sp, #8
 8001c6e:	691b      	ldr	r3, [r3, #16]
 8001c70:	9301      	str	r3, [sp, #4]
 8001c72:	1c41      	adds	r1, r0, #1
 8001c74:	9b01      	ldr	r3, [sp, #4]
 8001c76:	bf18      	it	ne
 8001c78:	3001      	addne	r0, #1
 8001c7a:	f04f 23e0 	mov.w	r3, #3758153728	; 0xe000e000
 8001c7e:	b908      	cbnz	r0, 8001c84 <LL_mDelay+0x1c>
 8001c80:	b002      	add	sp, #8
 8001c82:	4770      	bx	lr
 8001c84:	691a      	ldr	r2, [r3, #16]
 8001c86:	03d2      	lsls	r2, r2, #15
 8001c88:	bf48      	it	mi
 8001c8a:	f100 30ff 	addmi.w	r0, r0, #4294967295
 8001c8e:	e7f6      	b.n	8001c7e <LL_mDelay+0x16>

08001c90 <LL_SetSystemCoreClock>:
 8001c90:	4b01      	ldr	r3, [pc, #4]	; (8001c98 <LL_SetSystemCoreClock+0x8>)
 8001c92:	6018      	str	r0, [r3, #0]
 8001c94:	4770      	bx	lr
 8001c96:	bf00      	nop
 8001c98:	20000000 	.word	0x20000000

08001c9c <MX_FATFS_Init>:
 8001c9c:	b508      	push	{r3, lr}
 8001c9e:	4903      	ldr	r1, [pc, #12]	; (8001cac <MX_FATFS_Init+0x10>)
 8001ca0:	4803      	ldr	r0, [pc, #12]	; (8001cb0 <MX_FATFS_Init+0x14>)
 8001ca2:	f002 fb9b 	bl	80043dc <FATFS_LinkDriver>
 8001ca6:	4b03      	ldr	r3, [pc, #12]	; (8001cb4 <MX_FATFS_Init+0x18>)
 8001ca8:	7018      	strb	r0, [r3, #0]
 8001caa:	bd08      	pop	{r3, pc}
 8001cac:	20000590 	.word	0x20000590
 8001cb0:	200000a0 	.word	0x200000a0
 8001cb4:	20000594 	.word	0x20000594

08001cb8 <get_fattime>:
 8001cb8:	2000      	movs	r0, #0
 8001cba:	4770      	bx	lr

08001cbc <USER_initialize>:
 8001cbc:	f000 b95e 	b.w	8001f7c <USER_SPI_initialize>

08001cc0 <USER_status>:
 8001cc0:	f000 b9ec 	b.w	800209c <USER_SPI_status>

08001cc4 <USER_read>:
 8001cc4:	b538      	push	{r3, r4, r5, lr}
 8001cc6:	4c05      	ldr	r4, [pc, #20]	; (8001cdc <USER_read+0x18>)
 8001cc8:	f04f 5500 	mov.w	r5, #536870912	; 0x20000000
 8001ccc:	61a5      	str	r5, [r4, #24]
 8001cce:	f000 f9eb 	bl	80020a8 <USER_SPI_read>
 8001cd2:	f44f 5300 	mov.w	r3, #8192	; 0x2000
 8001cd6:	61a3      	str	r3, [r4, #24]
 8001cd8:	bd38      	pop	{r3, r4, r5, pc}
 8001cda:	bf00      	nop
 8001cdc:	40020800 	.word	0x40020800

08001ce0 <USER_write>:
 8001ce0:	b538      	push	{r3, r4, r5, lr}
 8001ce2:	4c05      	ldr	r4, [pc, #20]	; (8001cf8 <USER_write+0x18>)
 8001ce4:	f04f 5500 	mov.w	r5, #536870912	; 0x20000000
 8001ce8:	61a5      	str	r5, [r4, #24]
 8001cea:	f000 fa1f 	bl	800212c <USER_SPI_write>
 8001cee:	f44f 5300 	mov.w	r3, #8192	; 0x2000
 8001cf2:	61a3      	str	r3, [r4, #24]
 8001cf4:	bd38      	pop	{r3, r4, r5, pc}
 8001cf6:	bf00      	nop
 8001cf8:	40020800 	.word	0x40020800

08001cfc <USER_ioctl>:
 8001cfc:	f000 ba68 	b.w	80021d0 <USER_SPI_ioctl>

08001d00 <set_sd_interface_speed>:
 8001d00:	4b08      	ldr	r3, [pc, #32]	; (8001d24 <set_sd_interface_speed+0x24>)
 8001d02:	681a      	ldr	r2, [r3, #0]
 8001d04:	f022 0240 	bic.w	r2, r2, #64	; 0x40
 8001d08:	601a      	str	r2, [r3, #0]
 8001d0a:	681a      	ldr	r2, [r3, #0]
 8001d0c:	f022 0238 	bic.w	r2, r2, #56	; 0x38
 8001d10:	601a      	str	r2, [r3, #0]
 8001d12:	681a      	ldr	r2, [r3, #0]
 8001d14:	ea42 00c0 	orr.w	r0, r2, r0, lsl #3
 8001d18:	6018      	str	r0, [r3, #0]
 8001d1a:	681a      	ldr	r2, [r3, #0]
 8001d1c:	f042 0240 	orr.w	r2, r2, #64	; 0x40
 8001d20:	601a      	str	r2, [r3, #0]
 8001d22:	4770      	bx	lr
 8001d24:	40003800 	.word	0x40003800

08001d28 <spi_rw>:
 8001d28:	4b04      	ldr	r3, [pc, #16]	; (8001d3c <spi_rw+0x14>)
 8001d2a:	7318      	strb	r0, [r3, #12]
 8001d2c:	689a      	ldr	r2, [r3, #8]
 8001d2e:	07d1      	lsls	r1, r2, #31
 8001d30:	d5fc      	bpl.n	8001d2c <spi_rw+0x4>
 8001d32:	689a      	ldr	r2, [r3, #8]
 8001d34:	0612      	lsls	r2, r2, #24
 8001d36:	d4fc      	bmi.n	8001d32 <spi_rw+0xa>
 8001d38:	7b18      	ldrb	r0, [r3, #12]
 8001d3a:	4770      	bx	lr
 8001d3c:	40003800 	.word	0x40003800

08001d40 <SPI_DMA_TransmitReceive>:
 8001d40:	4b40      	ldr	r3, [pc, #256]	; (8001e44 <SPI_DMA_TransmitReceive+0x104>)
 8001d42:	b570      	push	{r4, r5, r6, lr}
 8001d44:	6d9c      	ldr	r4, [r3, #88]	; 0x58
 8001d46:	f024 0401 	bic.w	r4, r4, #1
 8001d4a:	659c      	str	r4, [r3, #88]	; 0x58
 8001d4c:	6f1c      	ldr	r4, [r3, #112]	; 0x70
 8001d4e:	f024 0401 	bic.w	r4, r4, #1
 8001d52:	671c      	str	r4, [r3, #112]	; 0x70
 8001d54:	6d9c      	ldr	r4, [r3, #88]	; 0x58
 8001d56:	07e4      	lsls	r4, r4, #31
 8001d58:	d45e      	bmi.n	8001e18 <SPI_DMA_TransmitReceive+0xd8>
 8001d5a:	6f1c      	ldr	r4, [r3, #112]	; 0x70
 8001d5c:	07e6      	lsls	r6, r4, #31
 8001d5e:	d45b      	bmi.n	8001e18 <SPI_DMA_TransmitReceive+0xd8>
 8001d60:	f04f 647c 	mov.w	r4, #264241152	; 0xfc00000
 8001d64:	609c      	str	r4, [r3, #8]
 8001d66:	243f      	movs	r4, #63	; 0x3f
 8001d68:	60dc      	str	r4, [r3, #12]
 8001d6a:	4c37      	ldr	r4, [pc, #220]	; (8001e48 <SPI_DMA_TransmitReceive+0x108>)
 8001d6c:	4e37      	ldr	r6, [pc, #220]	; (8001e4c <SPI_DMA_TransmitReceive+0x10c>)
 8001d6e:	6865      	ldr	r5, [r4, #4]
 8001d70:	f045 0503 	orr.w	r5, r5, #3
 8001d74:	6065      	str	r5, [r4, #4]
 8001d76:	6d9d      	ldr	r5, [r3, #88]	; 0x58
 8001d78:	4035      	ands	r5, r6
 8001d7a:	659d      	str	r5, [r3, #88]	; 0x58
 8001d7c:	6edd      	ldr	r5, [r3, #108]	; 0x6c
 8001d7e:	f025 0580 	bic.w	r5, r5, #128	; 0x80
 8001d82:	66dd      	str	r5, [r3, #108]	; 0x6c
 8001d84:	6f1d      	ldr	r5, [r3, #112]	; 0x70
 8001d86:	4035      	ands	r5, r6
 8001d88:	671d      	str	r5, [r3, #112]	; 0x70
 8001d8a:	f8d3 5084 	ldr.w	r5, [r3, #132]	; 0x84
 8001d8e:	f025 0580 	bic.w	r5, r5, #128	; 0x80
 8001d92:	f8c3 5084 	str.w	r5, [r3, #132]	; 0x84
 8001d96:	6825      	ldr	r5, [r4, #0]
 8001d98:	f045 0540 	orr.w	r5, r5, #64	; 0x40
 8001d9c:	6025      	str	r5, [r4, #0]
 8001d9e:	4c2c      	ldr	r4, [pc, #176]	; (8001e50 <SPI_DMA_TransmitReceive+0x110>)
 8001da0:	2800      	cmp	r0, #0
 8001da2:	d13b      	bne.n	8001e1c <SPI_DMA_TransmitReceive+0xdc>
 8001da4:	6d98      	ldr	r0, [r3, #88]	; 0x58
 8001da6:	f420 7000 	bic.w	r0, r0, #512	; 0x200
 8001daa:	6598      	str	r0, [r3, #88]	; 0x58
 8001dac:	6d98      	ldr	r0, [r3, #88]	; 0x58
 8001dae:	f440 6080 	orr.w	r0, r0, #1024	; 0x400
 8001db2:	6598      	str	r0, [r3, #88]	; 0x58
 8001db4:	6f18      	ldr	r0, [r3, #112]	; 0x70
 8001db6:	f420 60c0 	bic.w	r0, r0, #1536	; 0x600
 8001dba:	6718      	str	r0, [r3, #112]	; 0x70
 8001dbc:	67dc      	str	r4, [r3, #124]	; 0x7c
 8001dbe:	6659      	str	r1, [r3, #100]	; 0x64
 8001dc0:	4b20      	ldr	r3, [pc, #128]	; (8001e44 <SPI_DMA_TransmitReceive+0x104>)
 8001dc2:	4924      	ldr	r1, [pc, #144]	; (8001e54 <SPI_DMA_TransmitReceive+0x114>)
 8001dc4:	6799      	str	r1, [r3, #120]	; 0x78
 8001dc6:	6619      	str	r1, [r3, #96]	; 0x60
 8001dc8:	675a      	str	r2, [r3, #116]	; 0x74
 8001dca:	65da      	str	r2, [r3, #92]	; 0x5c
 8001dcc:	6d9a      	ldr	r2, [r3, #88]	; 0x58
 8001dce:	f042 0201 	orr.w	r2, r2, #1
 8001dd2:	659a      	str	r2, [r3, #88]	; 0x58
 8001dd4:	6f1a      	ldr	r2, [r3, #112]	; 0x70
 8001dd6:	f042 0201 	orr.w	r2, r2, #1
 8001dda:	671a      	str	r2, [r3, #112]	; 0x70
 8001ddc:	685a      	ldr	r2, [r3, #4]
 8001dde:	0695      	lsls	r5, r2, #26
 8001de0:	d52b      	bpl.n	8001e3a <SPI_DMA_TransmitReceive+0xfa>
 8001de2:	681a      	ldr	r2, [r3, #0]
 8001de4:	0114      	lsls	r4, r2, #4
 8001de6:	d528      	bpl.n	8001e3a <SPI_DMA_TransmitReceive+0xfa>
 8001de8:	6f1a      	ldr	r2, [r3, #112]	; 0x70
 8001dea:	f022 0201 	bic.w	r2, r2, #1
 8001dee:	671a      	str	r2, [r3, #112]	; 0x70
 8001df0:	6d9a      	ldr	r2, [r3, #88]	; 0x58
 8001df2:	f022 0201 	bic.w	r2, r2, #1
 8001df6:	659a      	str	r2, [r3, #88]	; 0x58
 8001df8:	4b12      	ldr	r3, [pc, #72]	; (8001e44 <SPI_DMA_TransmitReceive+0x104>)
 8001dfa:	6f1a      	ldr	r2, [r3, #112]	; 0x70
 8001dfc:	07d0      	lsls	r0, r2, #31
 8001dfe:	d41e      	bmi.n	8001e3e <SPI_DMA_TransmitReceive+0xfe>
 8001e00:	6d9a      	ldr	r2, [r3, #88]	; 0x58
 8001e02:	07d1      	lsls	r1, r2, #31
 8001e04:	d41b      	bmi.n	8001e3e <SPI_DMA_TransmitReceive+0xfe>
 8001e06:	4b10      	ldr	r3, [pc, #64]	; (8001e48 <SPI_DMA_TransmitReceive+0x108>)
 8001e08:	685a      	ldr	r2, [r3, #4]
 8001e0a:	f022 0203 	bic.w	r2, r2, #3
 8001e0e:	605a      	str	r2, [r3, #4]
 8001e10:	689a      	ldr	r2, [r3, #8]
 8001e12:	0612      	lsls	r2, r2, #24
 8001e14:	d4fc      	bmi.n	8001e10 <SPI_DMA_TransmitReceive+0xd0>
 8001e16:	bd70      	pop	{r4, r5, r6, pc}
 8001e18:	bf00      	nop
 8001e1a:	e79b      	b.n	8001d54 <SPI_DMA_TransmitReceive+0x14>
 8001e1c:	6d98      	ldr	r0, [r3, #88]	; 0x58
 8001e1e:	f420 60c0 	bic.w	r0, r0, #1536	; 0x600
 8001e22:	6598      	str	r0, [r3, #88]	; 0x58
 8001e24:	6f18      	ldr	r0, [r3, #112]	; 0x70
 8001e26:	f420 7000 	bic.w	r0, r0, #512	; 0x200
 8001e2a:	6718      	str	r0, [r3, #112]	; 0x70
 8001e2c:	6f18      	ldr	r0, [r3, #112]	; 0x70
 8001e2e:	f440 6080 	orr.w	r0, r0, #1024	; 0x400
 8001e32:	6718      	str	r0, [r3, #112]	; 0x70
 8001e34:	67d9      	str	r1, [r3, #124]	; 0x7c
 8001e36:	665c      	str	r4, [r3, #100]	; 0x64
 8001e38:	e7c2      	b.n	8001dc0 <SPI_DMA_TransmitReceive+0x80>
 8001e3a:	bf00      	nop
 8001e3c:	e7ce      	b.n	8001ddc <SPI_DMA_TransmitReceive+0x9c>
 8001e3e:	bf00      	nop
 8001e40:	e7db      	b.n	8001dfa <SPI_DMA_TransmitReceive+0xba>
 8001e42:	bf00      	nop
 8001e44:	40026000 	.word	0x40026000
 8001e48:	40003800 	.word	0x40003800
 8001e4c:	fffbffe1 	.word	0xfffbffe1
 8001e50:	200000b5 	.word	0x200000b5
 8001e54:	4000380c 	.word	0x4000380c

08001e58 <wait_ready>:
 8001e58:	b508      	push	{r3, lr}
 8001e5a:	20ff      	movs	r0, #255	; 0xff
 8001e5c:	f7ff ff64 	bl	8001d28 <spi_rw>
 8001e60:	20ff      	movs	r0, #255	; 0xff
 8001e62:	f7ff ff61 	bl	8001d28 <spi_rw>
 8001e66:	28ff      	cmp	r0, #255	; 0xff
 8001e68:	d1fa      	bne.n	8001e60 <wait_ready+0x8>
 8001e6a:	bd08      	pop	{r3, pc}

08001e6c <send_cmd>:
 8001e6c:	0602      	lsls	r2, r0, #24
 8001e6e:	b538      	push	{r3, r4, r5, lr}
 8001e70:	4604      	mov	r4, r0
 8001e72:	460d      	mov	r5, r1
 8001e74:	d507      	bpl.n	8001e86 <send_cmd+0x1a>
 8001e76:	2100      	movs	r1, #0
 8001e78:	2077      	movs	r0, #119	; 0x77
 8001e7a:	f7ff fff7 	bl	8001e6c <send_cmd>
 8001e7e:	2801      	cmp	r0, #1
 8001e80:	d834      	bhi.n	8001eec <send_cmd+0x80>
 8001e82:	f004 047f 	and.w	r4, r4, #127	; 0x7f
 8001e86:	4b1c      	ldr	r3, [pc, #112]	; (8001ef8 <send_cmd+0x8c>)
 8001e88:	f44f 5280 	mov.w	r2, #4096	; 0x1000
 8001e8c:	619a      	str	r2, [r3, #24]
 8001e8e:	f04f 5280 	mov.w	r2, #268435456	; 0x10000000
 8001e92:	619a      	str	r2, [r3, #24]
 8001e94:	f7ff ffe0 	bl	8001e58 <wait_ready>
 8001e98:	28ff      	cmp	r0, #255	; 0xff
 8001e9a:	d12a      	bne.n	8001ef2 <send_cmd+0x86>
 8001e9c:	4620      	mov	r0, r4
 8001e9e:	f7ff ff43 	bl	8001d28 <spi_rw>
 8001ea2:	0e28      	lsrs	r0, r5, #24
 8001ea4:	f7ff ff40 	bl	8001d28 <spi_rw>
 8001ea8:	f3c5 4007 	ubfx	r0, r5, #16, #8
 8001eac:	f7ff ff3c 	bl	8001d28 <spi_rw>
 8001eb0:	f3c5 2007 	ubfx	r0, r5, #8, #8
 8001eb4:	f7ff ff38 	bl	8001d28 <spi_rw>
 8001eb8:	b2e8      	uxtb	r0, r5
 8001eba:	f7ff ff35 	bl	8001d28 <spi_rw>
 8001ebe:	2c40      	cmp	r4, #64	; 0x40
 8001ec0:	d015      	beq.n	8001eee <send_cmd+0x82>
 8001ec2:	2c48      	cmp	r4, #72	; 0x48
 8001ec4:	bf14      	ite	ne
 8001ec6:	2001      	movne	r0, #1
 8001ec8:	2087      	moveq	r0, #135	; 0x87
 8001eca:	f7ff ff2d 	bl	8001d28 <spi_rw>
 8001ece:	2c4c      	cmp	r4, #76	; 0x4c
 8001ed0:	d102      	bne.n	8001ed8 <send_cmd+0x6c>
 8001ed2:	20ff      	movs	r0, #255	; 0xff
 8001ed4:	f7ff ff28 	bl	8001d28 <spi_rw>
 8001ed8:	240a      	movs	r4, #10
 8001eda:	20ff      	movs	r0, #255	; 0xff
 8001edc:	f7ff ff24 	bl	8001d28 <spi_rw>
 8001ee0:	0603      	lsls	r3, r0, #24
 8001ee2:	d503      	bpl.n	8001eec <send_cmd+0x80>
 8001ee4:	3c01      	subs	r4, #1
 8001ee6:	f014 04ff 	ands.w	r4, r4, #255	; 0xff
 8001eea:	d1f6      	bne.n	8001eda <send_cmd+0x6e>
 8001eec:	bd38      	pop	{r3, r4, r5, pc}
 8001eee:	2095      	movs	r0, #149	; 0x95
 8001ef0:	e7eb      	b.n	8001eca <send_cmd+0x5e>
 8001ef2:	20ff      	movs	r0, #255	; 0xff
 8001ef4:	e7fa      	b.n	8001eec <send_cmd+0x80>
 8001ef6:	bf00      	nop
 8001ef8:	40020400 	.word	0x40020400

08001efc <rcvr_datablock>:
 8001efc:	b538      	push	{r3, r4, r5, lr}
 8001efe:	4604      	mov	r4, r0
 8001f00:	460d      	mov	r5, r1
 8001f02:	20ff      	movs	r0, #255	; 0xff
 8001f04:	f7ff ff10 	bl	8001d28 <spi_rw>
 8001f08:	28ff      	cmp	r0, #255	; 0xff
 8001f0a:	d0fa      	beq.n	8001f02 <rcvr_datablock+0x6>
 8001f0c:	28fe      	cmp	r0, #254	; 0xfe
 8001f0e:	d10c      	bne.n	8001f2a <rcvr_datablock+0x2e>
 8001f10:	b2aa      	uxth	r2, r5
 8001f12:	4621      	mov	r1, r4
 8001f14:	2000      	movs	r0, #0
 8001f16:	f7ff ff13 	bl	8001d40 <SPI_DMA_TransmitReceive>
 8001f1a:	20ff      	movs	r0, #255	; 0xff
 8001f1c:	f7ff ff04 	bl	8001d28 <spi_rw>
 8001f20:	20ff      	movs	r0, #255	; 0xff
 8001f22:	f7ff ff01 	bl	8001d28 <spi_rw>
 8001f26:	2001      	movs	r0, #1
 8001f28:	bd38      	pop	{r3, r4, r5, pc}
 8001f2a:	2000      	movs	r0, #0
 8001f2c:	e7fc      	b.n	8001f28 <rcvr_datablock+0x2c>

08001f2e <xmit_datablock>:
 8001f2e:	b570      	push	{r4, r5, r6, lr}
 8001f30:	4606      	mov	r6, r0
 8001f32:	460d      	mov	r5, r1
 8001f34:	f7ff ff90 	bl	8001e58 <wait_ready>
 8001f38:	28ff      	cmp	r0, #255	; 0xff
 8001f3a:	4604      	mov	r4, r0
 8001f3c:	d119      	bne.n	8001f72 <xmit_datablock+0x44>
 8001f3e:	4628      	mov	r0, r5
 8001f40:	f7ff fef2 	bl	8001d28 <spi_rw>
 8001f44:	2dfd      	cmp	r5, #253	; 0xfd
 8001f46:	d016      	beq.n	8001f76 <xmit_datablock+0x48>
 8001f48:	f44f 7200 	mov.w	r2, #512	; 0x200
 8001f4c:	4631      	mov	r1, r6
 8001f4e:	2001      	movs	r0, #1
 8001f50:	f7ff fef6 	bl	8001d40 <SPI_DMA_TransmitReceive>
 8001f54:	4620      	mov	r0, r4
 8001f56:	f7ff fee7 	bl	8001d28 <spi_rw>
 8001f5a:	4620      	mov	r0, r4
 8001f5c:	f7ff fee4 	bl	8001d28 <spi_rw>
 8001f60:	4620      	mov	r0, r4
 8001f62:	f7ff fee1 	bl	8001d28 <spi_rw>
 8001f66:	f000 001f 	and.w	r0, r0, #31
 8001f6a:	1f43      	subs	r3, r0, #5
 8001f6c:	4258      	negs	r0, r3
 8001f6e:	4158      	adcs	r0, r3
 8001f70:	bd70      	pop	{r4, r5, r6, pc}
 8001f72:	2000      	movs	r0, #0
 8001f74:	e7fc      	b.n	8001f70 <xmit_datablock+0x42>
 8001f76:	2001      	movs	r0, #1
 8001f78:	e7fa      	b.n	8001f70 <xmit_datablock+0x42>
	...

08001f7c <USER_SPI_initialize>:
 8001f7c:	b5f7      	push	{r0, r1, r2, r4, r5, r6, r7, lr}
 8001f7e:	4e44      	ldr	r6, [pc, #272]	; (8002090 <USER_SPI_initialize+0x114>)
 8001f80:	f44f 5380 	mov.w	r3, #4096	; 0x1000
 8001f84:	61b3      	str	r3, [r6, #24]
 8001f86:	2006      	movs	r0, #6
 8001f88:	f7ff feba 	bl	8001d00 <set_sd_interface_speed>
 8001f8c:	f04f 5380 	mov.w	r3, #268435456	; 0x10000000
 8001f90:	61b3      	str	r3, [r6, #24]
 8001f92:	250a      	movs	r5, #10
 8001f94:	20ff      	movs	r0, #255	; 0xff
 8001f96:	3d01      	subs	r5, #1
 8001f98:	f7ff fec6 	bl	8001d28 <spi_rw>
 8001f9c:	f015 05ff 	ands.w	r5, r5, #255	; 0xff
 8001fa0:	d1f8      	bne.n	8001f94 <USER_SPI_initialize+0x18>
 8001fa2:	4629      	mov	r1, r5
 8001fa4:	2040      	movs	r0, #64	; 0x40
 8001fa6:	f7ff ff61 	bl	8001e6c <send_cmd>
 8001faa:	2801      	cmp	r0, #1
 8001fac:	4604      	mov	r4, r0
 8001fae:	d15f      	bne.n	8002070 <USER_SPI_initialize+0xf4>
 8001fb0:	f44f 71d5 	mov.w	r1, #426	; 0x1aa
 8001fb4:	2048      	movs	r0, #72	; 0x48
 8001fb6:	f7ff ff59 	bl	8001e6c <send_cmd>
 8001fba:	2801      	cmp	r0, #1
 8001fbc:	d142      	bne.n	8002044 <USER_SPI_initialize+0xc8>
 8001fbe:	ad01      	add	r5, sp, #4
 8001fc0:	462f      	mov	r7, r5
 8001fc2:	2404      	movs	r4, #4
 8001fc4:	20ff      	movs	r0, #255	; 0xff
 8001fc6:	f7ff feaf 	bl	8001d28 <spi_rw>
 8001fca:	3c01      	subs	r4, #1
 8001fcc:	f014 04ff 	ands.w	r4, r4, #255	; 0xff
 8001fd0:	f807 0b01 	strb.w	r0, [r7], #1
 8001fd4:	d1f6      	bne.n	8001fc4 <USER_SPI_initialize+0x48>
 8001fd6:	f89d 3006 	ldrb.w	r3, [sp, #6]
 8001fda:	2b01      	cmp	r3, #1
 8001fdc:	d148      	bne.n	8002070 <USER_SPI_initialize+0xf4>
 8001fde:	f89d 3007 	ldrb.w	r3, [sp, #7]
 8001fe2:	2baa      	cmp	r3, #170	; 0xaa
 8001fe4:	d144      	bne.n	8002070 <USER_SPI_initialize+0xf4>
 8001fe6:	f04f 4180 	mov.w	r1, #1073741824	; 0x40000000
 8001fea:	20e9      	movs	r0, #233	; 0xe9
 8001fec:	f7ff ff3e 	bl	8001e6c <send_cmd>
 8001ff0:	4601      	mov	r1, r0
 8001ff2:	2800      	cmp	r0, #0
 8001ff4:	d1f7      	bne.n	8001fe6 <USER_SPI_initialize+0x6a>
 8001ff6:	207a      	movs	r0, #122	; 0x7a
 8001ff8:	f7ff ff38 	bl	8001e6c <send_cmd>
 8001ffc:	2800      	cmp	r0, #0
 8001ffe:	d137      	bne.n	8002070 <USER_SPI_initialize+0xf4>
 8002000:	2404      	movs	r4, #4
 8002002:	20ff      	movs	r0, #255	; 0xff
 8002004:	f7ff fe90 	bl	8001d28 <spi_rw>
 8002008:	3c01      	subs	r4, #1
 800200a:	f014 04ff 	ands.w	r4, r4, #255	; 0xff
 800200e:	f805 0b01 	strb.w	r0, [r5], #1
 8002012:	d1f6      	bne.n	8002002 <USER_SPI_initialize+0x86>
 8002014:	f89d 3004 	ldrb.w	r3, [sp, #4]
 8002018:	f013 0f40 	tst.w	r3, #64	; 0x40
 800201c:	bf14      	ite	ne
 800201e:	240c      	movne	r4, #12
 8002020:	2404      	moveq	r4, #4
 8002022:	4b1c      	ldr	r3, [pc, #112]	; (8002094 <USER_SPI_initialize+0x118>)
 8002024:	4d1c      	ldr	r5, [pc, #112]	; (8002098 <USER_SPI_initialize+0x11c>)
 8002026:	701c      	strb	r4, [r3, #0]
 8002028:	f44f 5780 	mov.w	r7, #4096	; 0x1000
 800202c:	61b7      	str	r7, [r6, #24]
 800202e:	782b      	ldrb	r3, [r5, #0]
 8002030:	b304      	cbz	r4, 8002074 <USER_SPI_initialize+0xf8>
 8002032:	f003 03fe 	and.w	r3, r3, #254	; 0xfe
 8002036:	2000      	movs	r0, #0
 8002038:	702b      	strb	r3, [r5, #0]
 800203a:	f7ff fe61 	bl	8001d00 <set_sd_interface_speed>
 800203e:	7828      	ldrb	r0, [r5, #0]
 8002040:	b003      	add	sp, #12
 8002042:	bdf0      	pop	{r4, r5, r6, r7, pc}
 8002044:	4629      	mov	r1, r5
 8002046:	20e9      	movs	r0, #233	; 0xe9
 8002048:	f7ff ff10 	bl	8001e6c <send_cmd>
 800204c:	2802      	cmp	r0, #2
 800204e:	bf36      	itet	cc
 8002050:	25e9      	movcc	r5, #233	; 0xe9
 8002052:	2541      	movcs	r5, #65	; 0x41
 8002054:	2402      	movcc	r4, #2
 8002056:	2100      	movs	r1, #0
 8002058:	4628      	mov	r0, r5
 800205a:	f7ff ff07 	bl	8001e6c <send_cmd>
 800205e:	2800      	cmp	r0, #0
 8002060:	d1f9      	bne.n	8002056 <USER_SPI_initialize+0xda>
 8002062:	f44f 7100 	mov.w	r1, #512	; 0x200
 8002066:	2050      	movs	r0, #80	; 0x50
 8002068:	f7ff ff00 	bl	8001e6c <send_cmd>
 800206c:	2800      	cmp	r0, #0
 800206e:	d0d8      	beq.n	8002022 <USER_SPI_initialize+0xa6>
 8002070:	2400      	movs	r4, #0
 8002072:	e7d6      	b.n	8002022 <USER_SPI_initialize+0xa6>
 8002074:	07db      	lsls	r3, r3, #31
 8002076:	d405      	bmi.n	8002084 <USER_SPI_initialize+0x108>
 8002078:	f04f 5380 	mov.w	r3, #268435456	; 0x10000000
 800207c:	61b3      	str	r3, [r6, #24]
 800207e:	f7ff feeb 	bl	8001e58 <wait_ready>
 8002082:	61b7      	str	r7, [r6, #24]
 8002084:	782b      	ldrb	r3, [r5, #0]
 8002086:	f043 0301 	orr.w	r3, r3, #1
 800208a:	702b      	strb	r3, [r5, #0]
 800208c:	e7d7      	b.n	800203e <USER_SPI_initialize+0xc2>
 800208e:	bf00      	nop
 8002090:	40020400 	.word	0x40020400
 8002094:	20000595 	.word	0x20000595
 8002098:	200000b4 	.word	0x200000b4

0800209c <USER_SPI_status>:
 800209c:	4b01      	ldr	r3, [pc, #4]	; (80020a4 <USER_SPI_status+0x8>)
 800209e:	7818      	ldrb	r0, [r3, #0]
 80020a0:	4770      	bx	lr
 80020a2:	bf00      	nop
 80020a4:	200000b4 	.word	0x200000b4

080020a8 <USER_SPI_read>:
 80020a8:	b538      	push	{r3, r4, r5, lr}
 80020aa:	460d      	mov	r5, r1
 80020ac:	461c      	mov	r4, r3
 80020ae:	4611      	mov	r1, r2
 80020b0:	b393      	cbz	r3, 8002118 <USER_SPI_read+0x70>
 80020b2:	4b1b      	ldr	r3, [pc, #108]	; (8002120 <USER_SPI_read+0x78>)
 80020b4:	781b      	ldrb	r3, [r3, #0]
 80020b6:	07da      	lsls	r2, r3, #31
 80020b8:	d430      	bmi.n	800211c <USER_SPI_read+0x74>
 80020ba:	4b1a      	ldr	r3, [pc, #104]	; (8002124 <USER_SPI_read+0x7c>)
 80020bc:	781b      	ldrb	r3, [r3, #0]
 80020be:	071b      	lsls	r3, r3, #28
 80020c0:	bf58      	it	pl
 80020c2:	0249      	lslpl	r1, r1, #9
 80020c4:	2c01      	cmp	r4, #1
 80020c6:	d113      	bne.n	80020f0 <USER_SPI_read+0x48>
 80020c8:	2051      	movs	r0, #81	; 0x51
 80020ca:	f7ff fecf 	bl	8001e6c <send_cmd>
 80020ce:	b938      	cbnz	r0, 80020e0 <USER_SPI_read+0x38>
 80020d0:	f44f 7100 	mov.w	r1, #512	; 0x200
 80020d4:	4628      	mov	r0, r5
 80020d6:	f7ff ff11 	bl	8001efc <rcvr_datablock>
 80020da:	fab0 f480 	clz	r4, r0
 80020de:	0964      	lsrs	r4, r4, #5
 80020e0:	4b11      	ldr	r3, [pc, #68]	; (8002128 <USER_SPI_read+0x80>)
 80020e2:	f44f 5280 	mov.w	r2, #4096	; 0x1000
 80020e6:	1e20      	subs	r0, r4, #0
 80020e8:	619a      	str	r2, [r3, #24]
 80020ea:	bf18      	it	ne
 80020ec:	2001      	movne	r0, #1
 80020ee:	bd38      	pop	{r3, r4, r5, pc}
 80020f0:	2052      	movs	r0, #82	; 0x52
 80020f2:	f7ff febb 	bl	8001e6c <send_cmd>
 80020f6:	2800      	cmp	r0, #0
 80020f8:	d1f2      	bne.n	80020e0 <USER_SPI_read+0x38>
 80020fa:	f44f 7100 	mov.w	r1, #512	; 0x200
 80020fe:	4628      	mov	r0, r5
 8002100:	f7ff fefc 	bl	8001efc <rcvr_datablock>
 8002104:	b118      	cbz	r0, 800210e <USER_SPI_read+0x66>
 8002106:	3c01      	subs	r4, #1
 8002108:	f505 7500 	add.w	r5, r5, #512	; 0x200
 800210c:	d1f5      	bne.n	80020fa <USER_SPI_read+0x52>
 800210e:	2100      	movs	r1, #0
 8002110:	204c      	movs	r0, #76	; 0x4c
 8002112:	f7ff feab 	bl	8001e6c <send_cmd>
 8002116:	e7e3      	b.n	80020e0 <USER_SPI_read+0x38>
 8002118:	2004      	movs	r0, #4
 800211a:	e7e8      	b.n	80020ee <USER_SPI_read+0x46>
 800211c:	2003      	movs	r0, #3
 800211e:	e7e6      	b.n	80020ee <USER_SPI_read+0x46>
 8002120:	200000b4 	.word	0x200000b4
 8002124:	20000595 	.word	0x20000595
 8002128:	40020400 	.word	0x40020400

0800212c <USER_SPI_write>:
 800212c:	b570      	push	{r4, r5, r6, lr}
 800212e:	460e      	mov	r6, r1
 8002130:	4615      	mov	r5, r2
 8002132:	461c      	mov	r4, r3
 8002134:	2b00      	cmp	r3, #0
 8002136:	d03f      	beq.n	80021b8 <USER_SPI_write+0x8c>
 8002138:	4b22      	ldr	r3, [pc, #136]	; (80021c4 <USER_SPI_write+0x98>)
 800213a:	781a      	ldrb	r2, [r3, #0]
 800213c:	07d0      	lsls	r0, r2, #31
 800213e:	d43d      	bmi.n	80021bc <USER_SPI_write+0x90>
 8002140:	781b      	ldrb	r3, [r3, #0]
 8002142:	0759      	lsls	r1, r3, #29
 8002144:	d43c      	bmi.n	80021c0 <USER_SPI_write+0x94>
 8002146:	4b20      	ldr	r3, [pc, #128]	; (80021c8 <USER_SPI_write+0x9c>)
 8002148:	781b      	ldrb	r3, [r3, #0]
 800214a:	071a      	lsls	r2, r3, #28
 800214c:	bf58      	it	pl
 800214e:	026d      	lslpl	r5, r5, #9
 8002150:	2c01      	cmp	r4, #1
 8002152:	d113      	bne.n	800217c <USER_SPI_write+0x50>
 8002154:	4629      	mov	r1, r5
 8002156:	2058      	movs	r0, #88	; 0x58
 8002158:	f7ff fe88 	bl	8001e6c <send_cmd>
 800215c:	bb50      	cbnz	r0, 80021b4 <USER_SPI_write+0x88>
 800215e:	21fe      	movs	r1, #254	; 0xfe
 8002160:	4630      	mov	r0, r6
 8002162:	f7ff fee4 	bl	8001f2e <xmit_datablock>
 8002166:	fab0 f480 	clz	r4, r0
 800216a:	0964      	lsrs	r4, r4, #5
 800216c:	4b17      	ldr	r3, [pc, #92]	; (80021cc <USER_SPI_write+0xa0>)
 800216e:	f44f 5280 	mov.w	r2, #4096	; 0x1000
 8002172:	1e20      	subs	r0, r4, #0
 8002174:	619a      	str	r2, [r3, #24]
 8002176:	bf18      	it	ne
 8002178:	2001      	movne	r0, #1
 800217a:	bd70      	pop	{r4, r5, r6, pc}
 800217c:	f013 0f06 	tst.w	r3, #6
 8002180:	d003      	beq.n	800218a <USER_SPI_write+0x5e>
 8002182:	4621      	mov	r1, r4
 8002184:	20d7      	movs	r0, #215	; 0xd7
 8002186:	f7ff fe71 	bl	8001e6c <send_cmd>
 800218a:	4629      	mov	r1, r5
 800218c:	2059      	movs	r0, #89	; 0x59
 800218e:	f7ff fe6d 	bl	8001e6c <send_cmd>
 8002192:	2800      	cmp	r0, #0
 8002194:	d1ea      	bne.n	800216c <USER_SPI_write+0x40>
 8002196:	21fc      	movs	r1, #252	; 0xfc
 8002198:	4630      	mov	r0, r6
 800219a:	f7ff fec8 	bl	8001f2e <xmit_datablock>
 800219e:	b118      	cbz	r0, 80021a8 <USER_SPI_write+0x7c>
 80021a0:	3c01      	subs	r4, #1
 80021a2:	f506 7600 	add.w	r6, r6, #512	; 0x200
 80021a6:	d1f6      	bne.n	8002196 <USER_SPI_write+0x6a>
 80021a8:	21fd      	movs	r1, #253	; 0xfd
 80021aa:	2000      	movs	r0, #0
 80021ac:	f7ff febf 	bl	8001f2e <xmit_datablock>
 80021b0:	2800      	cmp	r0, #0
 80021b2:	d1db      	bne.n	800216c <USER_SPI_write+0x40>
 80021b4:	2401      	movs	r4, #1
 80021b6:	e7d9      	b.n	800216c <USER_SPI_write+0x40>
 80021b8:	2004      	movs	r0, #4
 80021ba:	e7de      	b.n	800217a <USER_SPI_write+0x4e>
 80021bc:	2003      	movs	r0, #3
 80021be:	e7dc      	b.n	800217a <USER_SPI_write+0x4e>
 80021c0:	2002      	movs	r0, #2
 80021c2:	e7da      	b.n	800217a <USER_SPI_write+0x4e>
 80021c4:	200000b4 	.word	0x200000b4
 80021c8:	20000595 	.word	0x20000595
 80021cc:	40020400 	.word	0x40020400

080021d0 <USER_SPI_ioctl>:
 80021d0:	b57f      	push	{r0, r1, r2, r3, r4, r5, r6, lr}
 80021d2:	4b70      	ldr	r3, [pc, #448]	; (8002394 <USER_SPI_ioctl+0x1c4>)
 80021d4:	781c      	ldrb	r4, [r3, #0]
 80021d6:	f014 0401 	ands.w	r4, r4, #1
 80021da:	4615      	mov	r5, r2
 80021dc:	f040 80d7 	bne.w	800238e <USER_SPI_ioctl+0x1be>
 80021e0:	290e      	cmp	r1, #14
 80021e2:	f200 80d2 	bhi.w	800238a <USER_SPI_ioctl+0x1ba>
 80021e6:	e8df f001 	tbb	[pc, r1]
 80021ea:	1508      	.short	0x1508
 80021ec:	d0d0534f 	.word	0xd0d0534f
 80021f0:	d0d0d0d0 	.word	0xd0d0d0d0
 80021f4:	b3b0a19d 	.word	0xb3b0a19d
 80021f8:	c4          	.byte	0xc4
 80021f9:	00          	.byte	0x00
 80021fa:	f7ff fe2d 	bl	8001e58 <wait_ready>
 80021fe:	f1b0 04ff 	subs.w	r4, r0, #255	; 0xff
 8002202:	bf18      	it	ne
 8002204:	2401      	movne	r4, #1
 8002206:	4b64      	ldr	r3, [pc, #400]	; (8002398 <USER_SPI_ioctl+0x1c8>)
 8002208:	f44f 5280 	mov.w	r2, #4096	; 0x1000
 800220c:	619a      	str	r2, [r3, #24]
 800220e:	4620      	mov	r0, r4
 8002210:	b004      	add	sp, #16
 8002212:	bd70      	pop	{r4, r5, r6, pc}
 8002214:	2100      	movs	r1, #0
 8002216:	2049      	movs	r0, #73	; 0x49
 8002218:	f7ff fe28 	bl	8001e6c <send_cmd>
 800221c:	4604      	mov	r4, r0
 800221e:	b108      	cbz	r0, 8002224 <USER_SPI_ioctl+0x54>
 8002220:	2401      	movs	r4, #1
 8002222:	e7f0      	b.n	8002206 <USER_SPI_ioctl+0x36>
 8002224:	2110      	movs	r1, #16
 8002226:	4668      	mov	r0, sp
 8002228:	f7ff fe68 	bl	8001efc <rcvr_datablock>
 800222c:	2800      	cmp	r0, #0
 800222e:	d0f7      	beq.n	8002220 <USER_SPI_ioctl+0x50>
 8002230:	f89d 3000 	ldrb.w	r3, [sp]
 8002234:	f89d 1008 	ldrb.w	r1, [sp, #8]
 8002238:	099b      	lsrs	r3, r3, #6
 800223a:	2b01      	cmp	r3, #1
 800223c:	f89d 3009 	ldrb.w	r3, [sp, #9]
 8002240:	d106      	bne.n	8002250 <USER_SPI_ioctl+0x80>
 8002242:	3301      	adds	r3, #1
 8002244:	eb03 2301 	add.w	r3, r3, r1, lsl #8
 8002248:	b29b      	uxth	r3, r3
 800224a:	029b      	lsls	r3, r3, #10
 800224c:	602b      	str	r3, [r5, #0]
 800224e:	e7da      	b.n	8002206 <USER_SPI_ioctl+0x36>
 8002250:	f89d 2007 	ldrb.w	r2, [sp, #7]
 8002254:	f89d 000a 	ldrb.w	r0, [sp, #10]
 8002258:	0092      	lsls	r2, r2, #2
 800225a:	eb02 1291 	add.w	r2, r2, r1, lsr #6
 800225e:	f89d 1006 	ldrb.w	r1, [sp, #6]
 8002262:	0289      	lsls	r1, r1, #10
 8002264:	f401 6140 	and.w	r1, r1, #3072	; 0xc00
 8002268:	3201      	adds	r2, #1
 800226a:	440a      	add	r2, r1
 800226c:	f89d 1005 	ldrb.w	r1, [sp, #5]
 8002270:	005b      	lsls	r3, r3, #1
 8002272:	f001 010f 	and.w	r1, r1, #15
 8002276:	eb01 11d0 	add.w	r1, r1, r0, lsr #7
 800227a:	f003 0306 	and.w	r3, r3, #6
 800227e:	440b      	add	r3, r1
 8002280:	3b07      	subs	r3, #7
 8002282:	fa02 f303 	lsl.w	r3, r2, r3
 8002286:	e7e1      	b.n	800224c <USER_SPI_ioctl+0x7c>
 8002288:	f44f 7300 	mov.w	r3, #512	; 0x200
 800228c:	8013      	strh	r3, [r2, #0]
 800228e:	e7ba      	b.n	8002206 <USER_SPI_ioctl+0x36>
 8002290:	4b42      	ldr	r3, [pc, #264]	; (800239c <USER_SPI_ioctl+0x1cc>)
 8002292:	781e      	ldrb	r6, [r3, #0]
 8002294:	f016 0104 	ands.w	r1, r6, #4
 8002298:	d01c      	beq.n	80022d4 <USER_SPI_ioctl+0x104>
 800229a:	2100      	movs	r1, #0
 800229c:	20cd      	movs	r0, #205	; 0xcd
 800229e:	f7ff fde5 	bl	8001e6c <send_cmd>
 80022a2:	2800      	cmp	r0, #0
 80022a4:	d1bc      	bne.n	8002220 <USER_SPI_ioctl+0x50>
 80022a6:	20ff      	movs	r0, #255	; 0xff
 80022a8:	f7ff fd3e 	bl	8001d28 <spi_rw>
 80022ac:	2110      	movs	r1, #16
 80022ae:	4668      	mov	r0, sp
 80022b0:	f7ff fe24 	bl	8001efc <rcvr_datablock>
 80022b4:	2800      	cmp	r0, #0
 80022b6:	d0b3      	beq.n	8002220 <USER_SPI_ioctl+0x50>
 80022b8:	2430      	movs	r4, #48	; 0x30
 80022ba:	20ff      	movs	r0, #255	; 0xff
 80022bc:	3c01      	subs	r4, #1
 80022be:	f7ff fd33 	bl	8001d28 <spi_rw>
 80022c2:	f014 04ff 	ands.w	r4, r4, #255	; 0xff
 80022c6:	d1f8      	bne.n	80022ba <USER_SPI_ioctl+0xea>
 80022c8:	f89d 200a 	ldrb.w	r2, [sp, #10]
 80022cc:	2310      	movs	r3, #16
 80022ce:	0912      	lsrs	r2, r2, #4
 80022d0:	4093      	lsls	r3, r2
 80022d2:	e7bb      	b.n	800224c <USER_SPI_ioctl+0x7c>
 80022d4:	2049      	movs	r0, #73	; 0x49
 80022d6:	f7ff fdc9 	bl	8001e6c <send_cmd>
 80022da:	4604      	mov	r4, r0
 80022dc:	2800      	cmp	r0, #0
 80022de:	d19f      	bne.n	8002220 <USER_SPI_ioctl+0x50>
 80022e0:	2110      	movs	r1, #16
 80022e2:	4668      	mov	r0, sp
 80022e4:	f7ff fe0a 	bl	8001efc <rcvr_datablock>
 80022e8:	2800      	cmp	r0, #0
 80022ea:	d099      	beq.n	8002220 <USER_SPI_ioctl+0x50>
 80022ec:	07b2      	lsls	r2, r6, #30
 80022ee:	f89d 300a 	ldrb.w	r3, [sp, #10]
 80022f2:	f89d 100b 	ldrb.w	r1, [sp, #11]
 80022f6:	d50a      	bpl.n	800230e <USER_SPI_ioctl+0x13e>
 80022f8:	f89d 200d 	ldrb.w	r2, [sp, #13]
 80022fc:	005b      	lsls	r3, r3, #1
 80022fe:	f003 037e 	and.w	r3, r3, #126	; 0x7e
 8002302:	eb03 13d1 	add.w	r3, r3, r1, lsr #7
 8002306:	0992      	lsrs	r2, r2, #6
 8002308:	3301      	adds	r3, #1
 800230a:	3a01      	subs	r2, #1
 800230c:	e7e0      	b.n	80022d0 <USER_SPI_ioctl+0x100>
 800230e:	00ca      	lsls	r2, r1, #3
 8002310:	f002 0218 	and.w	r2, r2, #24
 8002314:	f3c3 0384 	ubfx	r3, r3, #2, #5
 8002318:	eb02 1251 	add.w	r2, r2, r1, lsr #5
 800231c:	3301      	adds	r3, #1
 800231e:	fb02 3303 	mla	r3, r2, r3, r3
 8002322:	e793      	b.n	800224c <USER_SPI_ioctl+0x7c>
 8002324:	4b1d      	ldr	r3, [pc, #116]	; (800239c <USER_SPI_ioctl+0x1cc>)
 8002326:	781b      	ldrb	r3, [r3, #0]
 8002328:	7013      	strb	r3, [r2, #0]
 800232a:	e76c      	b.n	8002206 <USER_SPI_ioctl+0x36>
 800232c:	2100      	movs	r1, #0
 800232e:	2049      	movs	r0, #73	; 0x49
 8002330:	f7ff fd9c 	bl	8001e6c <send_cmd>
 8002334:	2800      	cmp	r0, #0
 8002336:	f47f af73 	bne.w	8002220 <USER_SPI_ioctl+0x50>
 800233a:	2110      	movs	r1, #16
 800233c:	4628      	mov	r0, r5
 800233e:	f7ff fddd 	bl	8001efc <rcvr_datablock>
 8002342:	fab0 f480 	clz	r4, r0
 8002346:	0964      	lsrs	r4, r4, #5
 8002348:	e75d      	b.n	8002206 <USER_SPI_ioctl+0x36>
 800234a:	2100      	movs	r1, #0
 800234c:	204a      	movs	r0, #74	; 0x4a
 800234e:	e7ef      	b.n	8002330 <USER_SPI_ioctl+0x160>
 8002350:	2100      	movs	r1, #0
 8002352:	207a      	movs	r0, #122	; 0x7a
 8002354:	f7ff fd8a 	bl	8001e6c <send_cmd>
 8002358:	4604      	mov	r4, r0
 800235a:	2800      	cmp	r0, #0
 800235c:	f47f af60 	bne.w	8002220 <USER_SPI_ioctl+0x50>
 8002360:	1d2e      	adds	r6, r5, #4
 8002362:	20ff      	movs	r0, #255	; 0xff
 8002364:	f7ff fce0 	bl	8001d28 <spi_rw>
 8002368:	f805 0b01 	strb.w	r0, [r5], #1
 800236c:	42ae      	cmp	r6, r5
 800236e:	d1f8      	bne.n	8002362 <USER_SPI_ioctl+0x192>
 8002370:	e749      	b.n	8002206 <USER_SPI_ioctl+0x36>
 8002372:	2100      	movs	r1, #0
 8002374:	20cd      	movs	r0, #205	; 0xcd
 8002376:	f7ff fd79 	bl	8001e6c <send_cmd>
 800237a:	2800      	cmp	r0, #0
 800237c:	f47f af50 	bne.w	8002220 <USER_SPI_ioctl+0x50>
 8002380:	20ff      	movs	r0, #255	; 0xff
 8002382:	f7ff fcd1 	bl	8001d28 <spi_rw>
 8002386:	2140      	movs	r1, #64	; 0x40
 8002388:	e7d8      	b.n	800233c <USER_SPI_ioctl+0x16c>
 800238a:	2404      	movs	r4, #4
 800238c:	e73b      	b.n	8002206 <USER_SPI_ioctl+0x36>
 800238e:	2403      	movs	r4, #3
 8002390:	e73d      	b.n	800220e <USER_SPI_ioctl+0x3e>
 8002392:	bf00      	nop
 8002394:	200000b4 	.word	0x200000b4
 8002398:	40020400 	.word	0x40020400
 800239c:	20000595 	.word	0x20000595

080023a0 <FileManagerSetDisplay>:
 80023a0:	6001      	str	r1, [r0, #0]
 80023a2:	4770      	bx	lr

080023a4 <FileManagerSetWin>:
 80023a4:	60c3      	str	r3, [r0, #12]
 80023a6:	9b00      	ldr	r3, [sp, #0]
 80023a8:	6103      	str	r3, [r0, #16]
 80023aa:	e9c0 1201 	strd	r1, r2, [r0, #4]
 80023ae:	4770      	bx	lr

080023b0 <FileManagerSetColor>:
 80023b0:	6141      	str	r1, [r0, #20]
 80023b2:	4770      	bx	lr

080023b4 <FileManagerSetFont>:
 80023b4:	6181      	str	r1, [r0, #24]
 80023b6:	4770      	bx	lr

080023b8 <FileManagerSetKeys>:
 80023b8:	f880 103d 	strb.w	r1, [r0, #61]	; 0x3d
 80023bc:	f880 203e 	strb.w	r2, [r0, #62]	; 0x3e
 80023c0:	f880 303f 	strb.w	r3, [r0, #63]	; 0x3f
 80023c4:	4770      	bx	lr

080023c6 <FileManagerChangeActiveFlag>:
 80023c6:	f880 103c 	strb.w	r1, [r0, #60]	; 0x3c
 80023ca:	4770      	bx	lr

080023cc <FileManagerGetStatus>:
 80023cc:	f890 0030 	ldrb.w	r0, [r0, #48]	; 0x30
 80023d0:	4770      	bx	lr

080023d2 <FileManagerGetFilePath>:
 80023d2:	69c0      	ldr	r0, [r0, #28]
 80023d4:	4770      	bx	lr

080023d6 <FileManagerGetFileName>:
 80023d6:	6a00      	ldr	r0, [r0, #32]
 80023d8:	4770      	bx	lr

080023da <findext>:
 80023da:	b538      	push	{r3, r4, r5, lr}
 80023dc:	4604      	mov	r4, r0
 80023de:	460d      	mov	r5, r1
 80023e0:	f002 f876 	bl	80044d0 <my_strlen>
 80023e4:	1821      	adds	r1, r4, r0
 80023e6:	b900      	cbnz	r0, 80023ea <findext+0x10>
 80023e8:	bd38      	pop	{r3, r4, r5, pc}
 80023ea:	f811 3d01 	ldrb.w	r3, [r1, #-1]!
 80023ee:	2b2e      	cmp	r3, #46	; 0x2e
 80023f0:	d008      	beq.n	8002404 <findext+0x2a>
 80023f2:	3801      	subs	r0, #1
 80023f4:	e7f7      	b.n	80023e6 <findext+0xc>
 80023f6:	4628      	mov	r0, r5
 80023f8:	f002 fa09 	bl	800480e <strstr>
 80023fc:	3800      	subs	r0, #0
 80023fe:	bf18      	it	ne
 8002400:	2001      	movne	r0, #1
 8002402:	e7f1      	b.n	80023e8 <findext+0xe>
 8002404:	2801      	cmp	r0, #1
 8002406:	d1f6      	bne.n	80023f6 <findext+0x1c>
 8002408:	2000      	movs	r0, #0
 800240a:	e7ed      	b.n	80023e8 <findext+0xe>

0800240c <Dos866toCp1251>:
 800240c:	b5f8      	push	{r3, r4, r5, r6, r7, lr}
 800240e:	4605      	mov	r5, r0
 8002410:	4604      	mov	r4, r0
 8002412:	26b8      	movs	r6, #184	; 0xb8
 8002414:	27a8      	movs	r7, #168	; 0xa8
 8002416:	4628      	mov	r0, r5
 8002418:	f7fd fedc 	bl	80001d4 <strlen>
 800241c:	1b63      	subs	r3, r4, r5
 800241e:	4298      	cmp	r0, r3
 8002420:	d800      	bhi.n	8002424 <Dos866toCp1251+0x18>
 8002422:	bdf8      	pop	{r3, r4, r5, r6, r7, pc}
 8002424:	7823      	ldrb	r3, [r4, #0]
 8002426:	f083 0280 	eor.w	r2, r3, #128	; 0x80
 800242a:	2a2f      	cmp	r2, #47	; 0x2f
 800242c:	d803      	bhi.n	8002436 <Dos866toCp1251+0x2a>
 800242e:	3340      	adds	r3, #64	; 0x40
 8002430:	7023      	strb	r3, [r4, #0]
 8002432:	3401      	adds	r4, #1
 8002434:	e7ef      	b.n	8002416 <Dos866toCp1251+0xa>
 8002436:	f103 0220 	add.w	r2, r3, #32
 800243a:	b2d2      	uxtb	r2, r2
 800243c:	2a0f      	cmp	r2, #15
 800243e:	d801      	bhi.n	8002444 <Dos866toCp1251+0x38>
 8002440:	3310      	adds	r3, #16
 8002442:	e7f5      	b.n	8002430 <Dos866toCp1251+0x24>
 8002444:	2bf0      	cmp	r3, #240	; 0xf0
 8002446:	d101      	bne.n	800244c <Dos866toCp1251+0x40>
 8002448:	7027      	strb	r7, [r4, #0]
 800244a:	e7f2      	b.n	8002432 <Dos866toCp1251+0x26>
 800244c:	2bf1      	cmp	r3, #241	; 0xf1
 800244e:	bf08      	it	eq
 8002450:	7026      	strbeq	r6, [r4, #0]
 8002452:	e7ee      	b.n	8002432 <Dos866toCp1251+0x26>

08002454 <FileManagerShow>:
 8002454:	e92d 4ff0 	stmdb	sp!, {r4, r5, r6, r7, r8, r9, sl, fp, lr}
 8002458:	4604      	mov	r4, r0
 800245a:	6983      	ldr	r3, [r0, #24]
 800245c:	6862      	ldr	r2, [r4, #4]
 800245e:	68c6      	ldr	r6, [r0, #12]
 8002460:	6925      	ldr	r5, [r4, #16]
 8002462:	7818      	ldrb	r0, [r3, #0]
 8002464:	7859      	ldrb	r1, [r3, #1]
 8002466:	2a00      	cmp	r2, #0
 8002468:	f5ad 7d6d 	sub.w	sp, sp, #948	; 0x3b4
 800246c:	db16      	blt.n	800249c <FileManagerShow+0x48>
 800246e:	68a3      	ldr	r3, [r4, #8]
 8002470:	2b00      	cmp	r3, #0
 8002472:	db13      	blt.n	800249c <FileManagerShow+0x48>
 8002474:	6827      	ldr	r7, [r4, #0]
 8002476:	f8b7 c004 	ldrh.w	ip, [r7, #4]
 800247a:	4432      	add	r2, r6
 800247c:	4562      	cmp	r2, ip
 800247e:	dc0d      	bgt.n	800249c <FileManagerShow+0x48>
 8002480:	88fa      	ldrh	r2, [r7, #6]
 8002482:	442b      	add	r3, r5
 8002484:	4293      	cmp	r3, r2
 8002486:	dc09      	bgt.n	800249c <FileManagerShow+0x48>
 8002488:	fb96 f3f0 	sdiv	r3, r6, r0
 800248c:	2b02      	cmp	r3, #2
 800248e:	9308      	str	r3, [sp, #32]
 8002490:	dd04      	ble.n	800249c <FileManagerShow+0x48>
 8002492:	fb95 f3f1 	sdiv	r3, r5, r1
 8002496:	2b00      	cmp	r3, #0
 8002498:	9305      	str	r3, [sp, #20]
 800249a:	dc06      	bgt.n	80024aa <FileManagerShow+0x56>
 800249c:	2301      	movs	r3, #1
 800249e:	f884 3030 	strb.w	r3, [r4, #48]	; 0x30
 80024a2:	f50d 7d6d 	add.w	sp, sp, #948	; 0x3b4
 80024a6:	e8bd 8ff0 	ldmia.w	sp!, {r4, r5, r6, r7, r8, r9, sl, fp, pc}
 80024aa:	9b08      	ldr	r3, [sp, #32]
 80024ac:	f8d4 a014 	ldr.w	sl, [r4, #20]
 80024b0:	4343      	muls	r3, r0
 80024b2:	930d      	str	r3, [sp, #52]	; 0x34
 80024b4:	9b05      	ldr	r3, [sp, #20]
 80024b6:	434b      	muls	r3, r1
 80024b8:	9307      	str	r3, [sp, #28]
 80024ba:	9a07      	ldr	r2, [sp, #28]
 80024bc:	9b05      	ldr	r3, [sp, #20]
 80024be:	4353      	muls	r3, r2
 80024c0:	9310      	str	r3, [sp, #64]	; 0x40
 80024c2:	9b08      	ldr	r3, [sp, #32]
 80024c4:	3b01      	subs	r3, #1
 80024c6:	930f      	str	r3, [sp, #60]	; 0x3c
 80024c8:	b672      	cpsid	i
 80024ca:	f3bf 8f4f 	dsb	sy
 80024ce:	f3bf 8f6f 	isb	sy
 80024d2:	69e1      	ldr	r1, [r4, #28]
 80024d4:	a814      	add	r0, sp, #80	; 0x50
 80024d6:	f001 ff02 	bl	80042de <f_opendir>
 80024da:	9006      	str	r0, [sp, #24]
 80024dc:	b662      	cpsie	i
 80024de:	9b06      	ldr	r3, [sp, #24]
 80024e0:	b10b      	cbz	r3, 80024e6 <FileManagerShow+0x92>
 80024e2:	2302      	movs	r3, #2
 80024e4:	e7db      	b.n	800249e <FileManagerShow+0x4a>
 80024e6:	f894 3031 	ldrb.w	r3, [r4, #49]	; 0x31
 80024ea:	b943      	cbnz	r3, 80024fe <FileManagerShow+0xaa>
 80024ec:	6ae3      	ldr	r3, [r4, #44]	; 0x2c
 80024ee:	6a62      	ldr	r2, [r4, #36]	; 0x24
 80024f0:	f852 2023 	ldr.w	r2, [r2, r3, lsl #2]
 80024f4:	6362      	str	r2, [r4, #52]	; 0x34
 80024f6:	6aa2      	ldr	r2, [r4, #40]	; 0x28
 80024f8:	f852 3023 	ldr.w	r3, [r2, r3, lsl #2]
 80024fc:	63a3      	str	r3, [r4, #56]	; 0x38
 80024fe:	f04f 0901 	mov.w	r9, #1
 8002502:	b672      	cpsid	i
 8002504:	f3bf 8f4f 	dsb	sy
 8002508:	f3bf 8f6f 	isb	sy
 800250c:	a960      	add	r1, sp, #384	; 0x180
 800250e:	a814      	add	r0, sp, #80	; 0x50
 8002510:	f001 ff21 	bl	8004356 <f_readdir>
 8002514:	b662      	cpsie	i
 8002516:	b950      	cbnz	r0, 800252e <FileManagerShow+0xda>
 8002518:	f89d 3196 	ldrb.w	r3, [sp, #406]	; 0x196
 800251c:	b13b      	cbz	r3, 800252e <FileManagerShow+0xda>
 800251e:	f89d 3188 	ldrb.w	r3, [sp, #392]	; 0x188
 8002522:	f013 0f06 	tst.w	r3, #6
 8002526:	d1ec      	bne.n	8002502 <FileManagerShow+0xae>
 8002528:	f109 0901 	add.w	r9, r9, #1
 800252c:	e7e9      	b.n	8002502 <FileManagerShow+0xae>
 800252e:	69a3      	ldr	r3, [r4, #24]
 8002530:	785a      	ldrb	r2, [r3, #1]
 8002532:	9b10      	ldr	r3, [sp, #64]	; 0x40
 8002534:	fb93 f3f9 	sdiv	r3, r3, r9
 8002538:	429a      	cmp	r2, r3
 800253a:	bfb8      	it	lt
 800253c:	461a      	movlt	r2, r3
 800253e:	9b05      	ldr	r3, [sp, #20]
 8002540:	920b      	str	r2, [sp, #44]	; 0x2c
 8002542:	4599      	cmp	r9, r3
 8002544:	dd04      	ble.n	8002550 <FileManagerShow+0xfc>
 8002546:	9b08      	ldr	r3, [sp, #32]
 8002548:	3b03      	subs	r3, #3
 800254a:	bf18      	it	ne
 800254c:	2301      	movne	r3, #1
 800254e:	9306      	str	r3, [sp, #24]
 8002550:	9b0f      	ldr	r3, [sp, #60]	; 0x3c
 8002552:	9a06      	ldr	r2, [sp, #24]
 8002554:	1a9b      	subs	r3, r3, r2
 8002556:	9309      	str	r3, [sp, #36]	; 0x24
 8002558:	b672      	cpsid	i
 800255a:	f3bf 8f4f 	dsb	sy
 800255e:	f3bf 8f6f 	isb	sy
 8002562:	2100      	movs	r1, #0
 8002564:	a814      	add	r0, sp, #80	; 0x50
 8002566:	f001 fef6 	bl	8004356 <f_readdir>
 800256a:	b662      	cpsie	i
 800256c:	2800      	cmp	r0, #0
 800256e:	d1b8      	bne.n	80024e2 <FileManagerShow+0x8e>
 8002570:	4680      	mov	r8, r0
 8002572:	4683      	mov	fp, r0
 8002574:	f04f 0300 	mov.w	r3, #0
 8002578:	f88d 3080 	strb.w	r3, [sp, #128]	; 0x80
 800257c:	f1bb 0f00 	cmp.w	fp, #0
 8002580:	d108      	bne.n	8002594 <FileManagerShow+0x140>
 8002582:	e9d4 320d 	ldrd	r3, r2, [r4, #52]	; 0x34
 8002586:	1a9b      	subs	r3, r3, r2
 8002588:	455b      	cmp	r3, fp
 800258a:	f340 812f 	ble.w	80027ec <FileManagerShow+0x398>
 800258e:	f10b 0b01 	add.w	fp, fp, #1
 8002592:	e012      	b.n	80025ba <FileManagerShow+0x166>
 8002594:	b672      	cpsid	i
 8002596:	f3bf 8f4f 	dsb	sy
 800259a:	f3bf 8f6f 	isb	sy
 800259e:	a960      	add	r1, sp, #384	; 0x180
 80025a0:	a814      	add	r0, sp, #80	; 0x50
 80025a2:	f001 fed8 	bl	8004356 <f_readdir>
 80025a6:	b662      	cpsie	i
 80025a8:	b948      	cbnz	r0, 80025be <FileManagerShow+0x16a>
 80025aa:	f89d 3196 	ldrb.w	r3, [sp, #406]	; 0x196
 80025ae:	b133      	cbz	r3, 80025be <FileManagerShow+0x16a>
 80025b0:	f89d 3188 	ldrb.w	r3, [sp, #392]	; 0x188
 80025b4:	f013 0f06 	tst.w	r3, #6
 80025b8:	d0e3      	beq.n	8002582 <FileManagerShow+0x12e>
 80025ba:	45d9      	cmp	r9, fp
 80025bc:	dcda      	bgt.n	8002574 <FileManagerShow+0x120>
 80025be:	9b07      	ldr	r3, [sp, #28]
 80025c0:	4543      	cmp	r3, r8
 80025c2:	dd19      	ble.n	80025f8 <FileManagerShow+0x1a4>
 80025c4:	88a1      	ldrh	r1, [r4, #4]
 80025c6:	9a0d      	ldr	r2, [sp, #52]	; 0x34
 80025c8:	9d06      	ldr	r5, [sp, #24]
 80025ca:	8920      	ldrh	r0, [r4, #8]
 80025cc:	1e4b      	subs	r3, r1, #1
 80025ce:	4413      	add	r3, r2
 80025d0:	69a2      	ldr	r2, [r4, #24]
 80025d2:	7812      	ldrb	r2, [r2, #0]
 80025d4:	fb12 f205 	smulbb	r2, r2, r5
 80025d8:	f8da 500c 	ldr.w	r5, [sl, #12]
 80025dc:	9501      	str	r5, [sp, #4]
 80025de:	9d07      	ldr	r5, [sp, #28]
 80025e0:	1a9b      	subs	r3, r3, r2
 80025e2:	eb00 0208 	add.w	r2, r0, r8
 80025e6:	3801      	subs	r0, #1
 80025e8:	4428      	add	r0, r5
 80025ea:	b280      	uxth	r0, r0
 80025ec:	9000      	str	r0, [sp, #0]
 80025ee:	b29b      	uxth	r3, r3
 80025f0:	6820      	ldr	r0, [r4, #0]
 80025f2:	b292      	uxth	r2, r2
 80025f4:	f7fe fd8a 	bl	800110c <LCD_FillWindow>
 80025f8:	f894 303c 	ldrb.w	r3, [r4, #60]	; 0x3c
 80025fc:	2b01      	cmp	r3, #1
 80025fe:	f43f af50 	beq.w	80024a2 <FileManagerShow+0x4e>
 8002602:	f89a 3024 	ldrb.w	r3, [sl, #36]	; 0x24
 8002606:	b9fb      	cbnz	r3, 8002648 <FileManagerShow+0x1f4>
 8002608:	6861      	ldr	r1, [r4, #4]
 800260a:	69a2      	ldr	r2, [r4, #24]
 800260c:	9f0d      	ldr	r7, [sp, #52]	; 0x34
 800260e:	7856      	ldrb	r6, [r2, #1]
 8002610:	7812      	ldrb	r2, [r2, #0]
 8002612:	6ba0      	ldr	r0, [r4, #56]	; 0x38
 8002614:	8925      	ldrh	r5, [r4, #8]
 8002616:	1e4b      	subs	r3, r1, #1
 8002618:	443b      	add	r3, r7
 800261a:	9f06      	ldr	r7, [sp, #24]
 800261c:	fb12 f207 	smulbb	r2, r2, r7
 8002620:	1a9b      	subs	r3, r3, r2
 8002622:	fb10 f206 	smulbb	r2, r0, r6
 8002626:	3001      	adds	r0, #1
 8002628:	442a      	add	r2, r5
 800262a:	fb10 f006 	smulbb	r0, r0, r6
 800262e:	3d01      	subs	r5, #1
 8002630:	4428      	add	r0, r5
 8002632:	f8da 7018 	ldr.w	r7, [sl, #24]
 8002636:	9701      	str	r7, [sp, #4]
 8002638:	b200      	sxth	r0, r0
 800263a:	9000      	str	r0, [sp, #0]
 800263c:	b21b      	sxth	r3, r3
 800263e:	6820      	ldr	r0, [r4, #0]
 8002640:	b212      	sxth	r2, r2
 8002642:	b209      	sxth	r1, r1
 8002644:	f7fe ff0f 	bl	8001466 <LCD_DrawRectangle>
 8002648:	9b06      	ldr	r3, [sp, #24]
 800264a:	2b00      	cmp	r3, #0
 800264c:	d05c      	beq.n	8002708 <FileManagerShow+0x2b4>
 800264e:	e9d4 530d 	ldrd	r5, r3, [r4, #52]	; 0x34
 8002652:	9a0b      	ldr	r2, [sp, #44]	; 0x2c
 8002654:	f8bd 6034 	ldrh.w	r6, [sp, #52]	; 0x34
 8002658:	1aed      	subs	r5, r5, r3
 800265a:	9b07      	ldr	r3, [sp, #28]
 800265c:	1a9b      	subs	r3, r3, r2
 800265e:	435d      	muls	r5, r3
 8002660:	9b05      	ldr	r3, [sp, #20]
 8002662:	eba9 0303 	sub.w	r3, r9, r3
 8002666:	fb95 f5f3 	sdiv	r5, r5, r3
 800266a:	fa1f f885 	uxth.w	r8, r5
 800266e:	b1a5      	cbz	r5, 800269a <FileManagerShow+0x246>
 8002670:	6861      	ldr	r1, [r4, #4]
 8002672:	69a0      	ldr	r0, [r4, #24]
 8002674:	68a2      	ldr	r2, [r4, #8]
 8002676:	7800      	ldrb	r0, [r0, #0]
 8002678:	4431      	add	r1, r6
 800267a:	b289      	uxth	r1, r1
 800267c:	1e4b      	subs	r3, r1, #1
 800267e:	1a09      	subs	r1, r1, r0
 8002680:	f8da 0020 	ldr.w	r0, [sl, #32]
 8002684:	9001      	str	r0, [sp, #4]
 8002686:	1e50      	subs	r0, r2, #1
 8002688:	4440      	add	r0, r8
 800268a:	b200      	sxth	r0, r0
 800268c:	9000      	str	r0, [sp, #0]
 800268e:	b21b      	sxth	r3, r3
 8002690:	6820      	ldr	r0, [r4, #0]
 8002692:	b212      	sxth	r2, r2
 8002694:	b209      	sxth	r1, r1
 8002696:	f7fe fe17 	bl	80012c8 <LCD_DrawFilledRectangle>
 800269a:	6861      	ldr	r1, [r4, #4]
 800269c:	69a0      	ldr	r0, [r4, #24]
 800269e:	68a2      	ldr	r2, [r4, #8]
 80026a0:	7800      	ldrb	r0, [r0, #0]
 80026a2:	f8bd 702c 	ldrh.w	r7, [sp, #44]	; 0x2c
 80026a6:	4431      	add	r1, r6
 80026a8:	b289      	uxth	r1, r1
 80026aa:	1e4b      	subs	r3, r1, #1
 80026ac:	1a09      	subs	r1, r1, r0
 80026ae:	f8da 001c 	ldr.w	r0, [sl, #28]
 80026b2:	9001      	str	r0, [sp, #4]
 80026b4:	4442      	add	r2, r8
 80026b6:	1e78      	subs	r0, r7, #1
 80026b8:	fa10 f082 	uxtah	r0, r0, r2
 80026bc:	b200      	sxth	r0, r0
 80026be:	9000      	str	r0, [sp, #0]
 80026c0:	b21b      	sxth	r3, r3
 80026c2:	6820      	ldr	r0, [r4, #0]
 80026c4:	b212      	sxth	r2, r2
 80026c6:	b209      	sxth	r1, r1
 80026c8:	f7fe fdfe 	bl	80012c8 <LCD_DrawFilledRectangle>
 80026cc:	9b0b      	ldr	r3, [sp, #44]	; 0x2c
 80026ce:	441d      	add	r5, r3
 80026d0:	9b07      	ldr	r3, [sp, #28]
 80026d2:	429d      	cmp	r5, r3
 80026d4:	da18      	bge.n	8002708 <FileManagerShow+0x2b4>
 80026d6:	6863      	ldr	r3, [r4, #4]
 80026d8:	69a5      	ldr	r5, [r4, #24]
 80026da:	8920      	ldrh	r0, [r4, #8]
 80026dc:	782d      	ldrb	r5, [r5, #0]
 80026de:	18f1      	adds	r1, r6, r3
 80026e0:	b289      	uxth	r1, r1
 80026e2:	1e4b      	subs	r3, r1, #1
 80026e4:	1b49      	subs	r1, r1, r5
 80026e6:	f8da 5020 	ldr.w	r5, [sl, #32]
 80026ea:	9501      	str	r5, [sp, #4]
 80026ec:	9d07      	ldr	r5, [sp, #28]
 80026ee:	4407      	add	r7, r0
 80026f0:	3801      	subs	r0, #1
 80026f2:	4428      	add	r0, r5
 80026f4:	b200      	sxth	r0, r0
 80026f6:	eb08 0207 	add.w	r2, r8, r7
 80026fa:	9000      	str	r0, [sp, #0]
 80026fc:	b21b      	sxth	r3, r3
 80026fe:	6820      	ldr	r0, [r4, #0]
 8002700:	b212      	sxth	r2, r2
 8002702:	b209      	sxth	r1, r1
 8002704:	f7fe fde0 	bl	80012c8 <LCD_DrawFilledRectangle>
 8002708:	2501      	movs	r5, #1
 800270a:	f109 36ff 	add.w	r6, r9, #4294967295
 800270e:	f000 fb0b 	bl	8002d28 <KEYB_Inkeys>
 8002712:	f894 203e 	ldrb.w	r2, [r4, #62]	; 0x3e
 8002716:	fa05 f202 	lsl.w	r2, r5, r2
 800271a:	4002      	ands	r2, r0
 800271c:	d002      	beq.n	8002724 <FileManagerShow+0x2d0>
 800271e:	6b63      	ldr	r3, [r4, #52]	; 0x34
 8002720:	42b3      	cmp	r3, r6
 8002722:	db10      	blt.n	8002746 <FileManagerShow+0x2f2>
 8002724:	f894 303d 	ldrb.w	r3, [r4, #61]	; 0x3d
 8002728:	fa05 f303 	lsl.w	r3, r5, r3
 800272c:	4203      	tst	r3, r0
 800272e:	d003      	beq.n	8002738 <FileManagerShow+0x2e4>
 8002730:	6b63      	ldr	r3, [r4, #52]	; 0x34
 8002732:	2b00      	cmp	r3, #0
 8002734:	f300 8211 	bgt.w	8002b5a <FileManagerShow+0x706>
 8002738:	f894 303f 	ldrb.w	r3, [r4, #63]	; 0x3f
 800273c:	fa05 f303 	lsl.w	r3, r5, r3
 8002740:	4203      	tst	r3, r0
 8002742:	d0e4      	beq.n	800270e <FileManagerShow+0x2ba>
 8002744:	b152      	cbz	r2, 800275c <FileManagerShow+0x308>
 8002746:	6ba3      	ldr	r3, [r4, #56]	; 0x38
 8002748:	9a05      	ldr	r2, [sp, #20]
 800274a:	3301      	adds	r3, #1
 800274c:	4293      	cmp	r3, r2
 800274e:	da02      	bge.n	8002756 <FileManagerShow+0x302>
 8002750:	454b      	cmp	r3, r9
 8002752:	bfb8      	it	lt
 8002754:	63a3      	strlt	r3, [r4, #56]	; 0x38
 8002756:	6b63      	ldr	r3, [r4, #52]	; 0x34
 8002758:	3301      	adds	r3, #1
 800275a:	6363      	str	r3, [r4, #52]	; 0x34
 800275c:	f894 203d 	ldrb.w	r2, [r4, #61]	; 0x3d
 8002760:	2301      	movs	r3, #1
 8002762:	4093      	lsls	r3, r2
 8002764:	4203      	tst	r3, r0
 8002766:	d007      	beq.n	8002778 <FileManagerShow+0x324>
 8002768:	6ba3      	ldr	r3, [r4, #56]	; 0x38
 800276a:	3b01      	subs	r3, #1
 800276c:	ea23 73e3 	bic.w	r3, r3, r3, asr #31
 8002770:	63a3      	str	r3, [r4, #56]	; 0x38
 8002772:	6b63      	ldr	r3, [r4, #52]	; 0x34
 8002774:	3b01      	subs	r3, #1
 8002776:	6363      	str	r3, [r4, #52]	; 0x34
 8002778:	f894 203f 	ldrb.w	r2, [r4, #63]	; 0x3f
 800277c:	2301      	movs	r3, #1
 800277e:	4093      	lsls	r3, r2
 8002780:	4203      	tst	r3, r0
 8002782:	f43f aee9 	beq.w	8002558 <FileManagerShow+0x104>
 8002786:	6b65      	ldr	r5, [r4, #52]	; 0x34
 8002788:	2d00      	cmp	r5, #0
 800278a:	f040 8150 	bne.w	8002a2e <FileManagerShow+0x5da>
 800278e:	6ae3      	ldr	r3, [r4, #44]	; 0x2c
 8002790:	2b00      	cmp	r3, #0
 8002792:	f000 8147 	beq.w	8002a24 <FileManagerShow+0x5d0>
 8002796:	69e0      	ldr	r0, [r4, #28]
 8002798:	f001 fe9a 	bl	80044d0 <my_strlen>
 800279c:	462b      	mov	r3, r5
 800279e:	1e41      	subs	r1, r0, #1
 80027a0:	2900      	cmp	r1, #0
 80027a2:	69e0      	ldr	r0, [r4, #28]
 80027a4:	db02      	blt.n	80027ac <FileManagerShow+0x358>
 80027a6:	2d00      	cmp	r5, #0
 80027a8:	f000 8134 	beq.w	8002a14 <FileManagerShow+0x5c0>
 80027ac:	3102      	adds	r1, #2
 80027ae:	f001 ffd5 	bl	800475c <realloc>
 80027b2:	6ae1      	ldr	r1, [r4, #44]	; 0x2c
 80027b4:	61e0      	str	r0, [r4, #28]
 80027b6:	0089      	lsls	r1, r1, #2
 80027b8:	6a60      	ldr	r0, [r4, #36]	; 0x24
 80027ba:	f001 ffcf 	bl	800475c <realloc>
 80027be:	6ae1      	ldr	r1, [r4, #44]	; 0x2c
 80027c0:	6260      	str	r0, [r4, #36]	; 0x24
 80027c2:	0089      	lsls	r1, r1, #2
 80027c4:	6aa0      	ldr	r0, [r4, #40]	; 0x28
 80027c6:	f001 ffc9 	bl	800475c <realloc>
 80027ca:	6ae3      	ldr	r3, [r4, #44]	; 0x2c
 80027cc:	62a0      	str	r0, [r4, #40]	; 0x28
 80027ce:	3b01      	subs	r3, #1
 80027d0:	62e3      	str	r3, [r4, #44]	; 0x2c
 80027d2:	2300      	movs	r3, #0
 80027d4:	f884 3031 	strb.w	r3, [r4, #49]	; 0x31
 80027d8:	b672      	cpsid	i
 80027da:	f3bf 8f4f 	dsb	sy
 80027de:	f3bf 8f6f 	isb	sy
 80027e2:	a814      	add	r0, sp, #80	; 0x50
 80027e4:	f001 fdae 	bl	8004344 <f_closedir>
 80027e8:	b662      	cpsie	i
 80027ea:	e66d      	b.n	80024c8 <FileManagerShow+0x74>
 80027ec:	9a05      	ldr	r2, [sp, #20]
 80027ee:	4413      	add	r3, r2
 80027f0:	455b      	cmp	r3, fp
 80027f2:	f77f aecc 	ble.w	800258e <FileManagerShow+0x13a>
 80027f6:	f8da 3004 	ldr.w	r3, [sl, #4]
 80027fa:	930c      	str	r3, [sp, #48]	; 0x30
 80027fc:	f1bb 0f00 	cmp.w	fp, #0
 8002800:	d170      	bne.n	80028e4 <FileManagerShow+0x490>
 8002802:	9a0f      	ldr	r2, [sp, #60]	; 0x3c
 8002804:	49a8      	ldr	r1, [pc, #672]	; (8002aa8 <FileManagerShow+0x654>)
 8002806:	4da9      	ldr	r5, [pc, #676]	; (8002aac <FileManagerShow+0x658>)
 8002808:	a820      	add	r0, sp, #128	; 0x80
 800280a:	f001 fe49 	bl	80044a0 <my_strcpy_fixed_sym>
 800280e:	e9d4 6300 	ldrd	r6, r3, [r4]
 8002812:	68a2      	ldr	r2, [r4, #8]
 8002814:	69a1      	ldr	r1, [r4, #24]
 8002816:	9311      	str	r3, [sp, #68]	; 0x44
 8002818:	eb08 0302 	add.w	r3, r8, r2
 800281c:	9312      	str	r3, [sp, #72]	; 0x48
 800281e:	6df2      	ldr	r2, [r6, #92]	; 0x5c
 8002820:	780b      	ldrb	r3, [r1, #0]
 8002822:	7848      	ldrb	r0, [r1, #1]
 8002824:	920a      	str	r2, [sp, #40]	; 0x28
 8002826:	f106 0160 	add.w	r1, r6, #96	; 0x60
 800282a:	428a      	cmp	r2, r1
 800282c:	ea4f 0243 	mov.w	r2, r3, lsl #1
 8002830:	bf08      	it	eq
 8002832:	f206 314e 	addweq	r1, r6, #846	; 0x34e
 8002836:	9213      	str	r2, [sp, #76]	; 0x4c
 8002838:	9a0a      	ldr	r2, [sp, #40]	; 0x28
 800283a:	65f1      	str	r1, [r6, #92]	; 0x5c
 800283c:	920e      	str	r2, [sp, #56]	; 0x38
 800283e:	f04f 0e00 	mov.w	lr, #0
 8002842:	4570      	cmp	r0, lr
 8002844:	f300 80b3 	bgt.w	80029ae <FileManagerShow+0x55a>
 8002848:	b285      	uxth	r5, r0
 800284a:	6ab0      	ldr	r0, [r6, #40]	; 0x28
 800284c:	f8bd 1044 	ldrh.w	r1, [sp, #68]	; 0x44
 8002850:	f8bd 2048 	ldrh.w	r2, [sp, #72]	; 0x48
 8002854:	b29b      	uxth	r3, r3
 8002856:	2800      	cmp	r0, #0
 8002858:	f040 80cf 	bne.w	80029fa <FileManagerShow+0x5a6>
 800285c:	9002      	str	r0, [sp, #8]
 800285e:	980a      	ldr	r0, [sp, #40]	; 0x28
 8002860:	e9cd 5000 	strd	r5, r0, [sp]
 8002864:	4630      	mov	r0, r6
 8002866:	f7fe fbfd 	bl	8001064 <LCD_DrawImage>
 800286a:	a820      	add	r0, sp, #128	; 0x80
 800286c:	f7ff fdce 	bl	800240c <Dos866toCp1251>
 8002870:	a820      	add	r0, sp, #128	; 0x80
 8002872:	f001 fe2d 	bl	80044d0 <my_strlen>
 8002876:	9b09      	ldr	r3, [sp, #36]	; 0x24
 8002878:	1a1d      	subs	r5, r3, r0
 800287a:	4298      	cmp	r0, r3
 800287c:	bfc8      	it	gt
 800287e:	2500      	movgt	r5, #0
 8002880:	ab20      	add	r3, sp, #128	; 0x80
 8002882:	4403      	add	r3, r0
 8002884:	462a      	mov	r2, r5
 8002886:	4618      	mov	r0, r3
 8002888:	2120      	movs	r1, #32
 800288a:	f001 ffb8 	bl	80047fe <memset>
 800288e:	f04f 0200 	mov.w	r2, #0
 8002892:	5542      	strb	r2, [r0, r5]
 8002894:	6b62      	ldr	r2, [r4, #52]	; 0x34
 8002896:	f8da 3010 	ldr.w	r3, [sl, #16]
 800289a:	f01b 0f01 	tst.w	fp, #1
 800289e:	bf18      	it	ne
 80028a0:	f8da 3014 	ldrne.w	r3, [sl, #20]
 80028a4:	455a      	cmp	r2, fp
 80028a6:	d107      	bne.n	80028b8 <FileManagerShow+0x464>
 80028a8:	f8da 2008 	ldr.w	r2, [sl, #8]
 80028ac:	920c      	str	r2, [sp, #48]	; 0x30
 80028ae:	f89a 2024 	ldrb.w	r2, [sl, #36]	; 0x24
 80028b2:	b10a      	cbz	r2, 80028b8 <FileManagerShow+0x464>
 80028b4:	f8da 3018 	ldr.w	r3, [sl, #24]
 80028b8:	69a5      	ldr	r5, [r4, #24]
 80028ba:	6860      	ldr	r0, [r4, #4]
 80028bc:	7829      	ldrb	r1, [r5, #0]
 80028be:	68a2      	ldr	r2, [r4, #8]
 80028c0:	4401      	add	r1, r0
 80028c2:	2000      	movs	r0, #0
 80028c4:	e9cd 3002 	strd	r3, r0, [sp, #8]
 80028c8:	9b0c      	ldr	r3, [sp, #48]	; 0x30
 80028ca:	6820      	ldr	r0, [r4, #0]
 80028cc:	4442      	add	r2, r8
 80028ce:	e9cd 5300 	strd	r5, r3, [sp]
 80028d2:	b292      	uxth	r2, r2
 80028d4:	ab20      	add	r3, sp, #128	; 0x80
 80028d6:	b289      	uxth	r1, r1
 80028d8:	f7fe fee4 	bl	80016a4 <LCD_WriteString>
 80028dc:	69a3      	ldr	r3, [r4, #24]
 80028de:	785b      	ldrb	r3, [r3, #1]
 80028e0:	4498      	add	r8, r3
 80028e2:	e654      	b.n	800258e <FileManagerShow+0x13a>
 80028e4:	f50d 70cb 	add.w	r0, sp, #406	; 0x196
 80028e8:	f001 fdf2 	bl	80044d0 <my_strlen>
 80028ec:	9b09      	ldr	r3, [sp, #36]	; 0x24
 80028ee:	4298      	cmp	r0, r3
 80028f0:	d817      	bhi.n	8002922 <FileManagerShow+0x4ce>
 80028f2:	f50d 71cb 	add.w	r1, sp, #406	; 0x196
 80028f6:	a820      	add	r0, sp, #128	; 0x80
 80028f8:	f001 fde1 	bl	80044be <my_strcpy>
 80028fc:	f89d 3188 	ldrb.w	r3, [sp, #392]	; 0x188
 8002900:	06d9      	lsls	r1, r3, #27
 8002902:	d531      	bpl.n	8002968 <FileManagerShow+0x514>
 8002904:	f8da 3000 	ldr.w	r3, [sl]
 8002908:	4d69      	ldr	r5, [pc, #420]	; (8002ab0 <FileManagerShow+0x65c>)
 800290a:	930c      	str	r3, [sp, #48]	; 0x30
 800290c:	6b63      	ldr	r3, [r4, #52]	; 0x34
 800290e:	455b      	cmp	r3, fp
 8002910:	f47f af7d 	bne.w	800280e <FileManagerShow+0x3ba>
 8002914:	f44f 728c 	mov.w	r2, #280	; 0x118
 8002918:	a960      	add	r1, sp, #384	; 0x180
 800291a:	a8a6      	add	r0, sp, #664	; 0x298
 800291c:	f001 ffca 	bl	80048b4 <memcpy>
 8002920:	e775      	b.n	800280e <FileManagerShow+0x3ba>
 8002922:	9b08      	ldr	r3, [sp, #32]
 8002924:	1eda      	subs	r2, r3, #3
 8002926:	9b06      	ldr	r3, [sp, #24]
 8002928:	1ad2      	subs	r2, r2, r3
 800292a:	f89d 3188 	ldrb.w	r3, [sp, #392]	; 0x188
 800292e:	06d8      	lsls	r0, r3, #27
 8002930:	d509      	bpl.n	8002946 <FileManagerShow+0x4f2>
 8002932:	f50d 71cb 	add.w	r1, sp, #406	; 0x196
 8002936:	a820      	add	r0, sp, #128	; 0x80
 8002938:	f001 fdb2 	bl	80044a0 <my_strcpy_fixed_sym>
 800293c:	495a      	ldr	r1, [pc, #360]	; (8002aa8 <FileManagerShow+0x654>)
 800293e:	a820      	add	r0, sp, #128	; 0x80
 8002940:	f001 fde2 	bl	8004508 <my_strcat>
 8002944:	e7da      	b.n	80028fc <FileManagerShow+0x4a8>
 8002946:	f50d 70cb 	add.w	r0, sp, #406	; 0x196
 800294a:	920a      	str	r2, [sp, #40]	; 0x28
 800294c:	f001 fdc0 	bl	80044d0 <my_strlen>
 8002950:	9a0a      	ldr	r2, [sp, #40]	; 0x28
 8002952:	2800      	cmp	r0, #0
 8002954:	d0ed      	beq.n	8002932 <FileManagerShow+0x4de>
 8002956:	1e43      	subs	r3, r0, #1
 8002958:	a960      	add	r1, sp, #384	; 0x180
 800295a:	4419      	add	r1, r3
 800295c:	7d89      	ldrb	r1, [r1, #22]
 800295e:	292e      	cmp	r1, #46	; 0x2e
 8002960:	f000 80d2 	beq.w	8002b08 <FileManagerShow+0x6b4>
 8002964:	4618      	mov	r0, r3
 8002966:	e7f4      	b.n	8002952 <FileManagerShow+0x4fe>
 8002968:	4952      	ldr	r1, [pc, #328]	; (8002ab4 <FileManagerShow+0x660>)
 800296a:	f50d 70cb 	add.w	r0, sp, #406	; 0x196
 800296e:	f7ff fd34 	bl	80023da <findext>
 8002972:	b9b0      	cbnz	r0, 80029a2 <FileManagerShow+0x54e>
 8002974:	4950      	ldr	r1, [pc, #320]	; (8002ab8 <FileManagerShow+0x664>)
 8002976:	f50d 70cb 	add.w	r0, sp, #406	; 0x196
 800297a:	f7ff fd2e 	bl	80023da <findext>
 800297e:	b990      	cbnz	r0, 80029a6 <FileManagerShow+0x552>
 8002980:	494e      	ldr	r1, [pc, #312]	; (8002abc <FileManagerShow+0x668>)
 8002982:	f50d 70cb 	add.w	r0, sp, #406	; 0x196
 8002986:	f7ff fd28 	bl	80023da <findext>
 800298a:	b970      	cbnz	r0, 80029aa <FileManagerShow+0x556>
 800298c:	494c      	ldr	r1, [pc, #304]	; (8002ac0 <FileManagerShow+0x66c>)
 800298e:	4d4d      	ldr	r5, [pc, #308]	; (8002ac4 <FileManagerShow+0x670>)
 8002990:	f50d 70cb 	add.w	r0, sp, #406	; 0x196
 8002994:	f7ff fd21 	bl	80023da <findext>
 8002998:	4b4b      	ldr	r3, [pc, #300]	; (8002ac8 <FileManagerShow+0x674>)
 800299a:	2800      	cmp	r0, #0
 800299c:	bf08      	it	eq
 800299e:	461d      	moveq	r5, r3
 80029a0:	e7b4      	b.n	800290c <FileManagerShow+0x4b8>
 80029a2:	4d4a      	ldr	r5, [pc, #296]	; (8002acc <FileManagerShow+0x678>)
 80029a4:	e7b2      	b.n	800290c <FileManagerShow+0x4b8>
 80029a6:	4d4a      	ldr	r5, [pc, #296]	; (8002ad0 <FileManagerShow+0x67c>)
 80029a8:	e7b0      	b.n	800290c <FileManagerShow+0x4b8>
 80029aa:	4d4a      	ldr	r5, [pc, #296]	; (8002ad4 <FileManagerShow+0x680>)
 80029ac:	e7ae      	b.n	800290c <FileManagerShow+0x4b8>
 80029ae:	f895 c005 	ldrb.w	ip, [r5, #5]
 80029b2:	2100      	movs	r1, #0
 80029b4:	fb0e fc0c 	mul.w	ip, lr, ip
 80029b8:	fbbc fcf0 	udiv	ip, ip, r0
 80029bc:	428b      	cmp	r3, r1
 80029be:	dc06      	bgt.n	80029ce <FileManagerShow+0x57a>
 80029c0:	990e      	ldr	r1, [sp, #56]	; 0x38
 80029c2:	9a13      	ldr	r2, [sp, #76]	; 0x4c
 80029c4:	4411      	add	r1, r2
 80029c6:	910e      	str	r1, [sp, #56]	; 0x38
 80029c8:	f10e 0e01 	add.w	lr, lr, #1
 80029cc:	e739      	b.n	8002842 <FileManagerShow+0x3ee>
 80029ce:	792f      	ldrb	r7, [r5, #4]
 80029d0:	fb01 f207 	mul.w	r2, r1, r7
 80029d4:	fbb2 f2f3 	udiv	r2, r2, r3
 80029d8:	fb07 270c 	mla	r7, r7, ip, r2
 80029dc:	682a      	ldr	r2, [r5, #0]
 80029de:	f832 7017 	ldrh.w	r7, [r2, r7, lsl #1]
 80029e2:	f896 2048 	ldrb.w	r2, [r6, #72]	; 0x48
 80029e6:	2a01      	cmp	r2, #1
 80029e8:	d101      	bne.n	80029ee <FileManagerShow+0x59a>
 80029ea:	ba7f      	rev16	r7, r7
 80029ec:	b2bf      	uxth	r7, r7
 80029ee:	9a0e      	ldr	r2, [sp, #56]	; 0x38
 80029f0:	f822 7011 	strh.w	r7, [r2, r1, lsl #1]
 80029f4:	3101      	adds	r1, #1
 80029f6:	e7e1      	b.n	80029bc <FileManagerShow+0x568>
 80029f8:	bf00      	nop
 80029fa:	4630      	mov	r0, r6
 80029fc:	e9cd 1211 	strd	r1, r2, [sp, #68]	; 0x44
 8002a00:	930e      	str	r3, [sp, #56]	; 0x38
 8002a02:	f7fe f99f 	bl	8000d44 <LCD_GetState>
 8002a06:	e9dd 1211 	ldrd	r1, r2, [sp, #68]	; 0x44
 8002a0a:	9b0e      	ldr	r3, [sp, #56]	; 0x38
 8002a0c:	2800      	cmp	r0, #0
 8002a0e:	d1f3      	bne.n	80029f8 <FileManagerShow+0x5a4>
 8002a10:	2001      	movs	r0, #1
 8002a12:	e723      	b.n	800285c <FileManagerShow+0x408>
 8002a14:	5c45      	ldrb	r5, [r0, r1]
 8002a16:	5443      	strb	r3, [r0, r1]
 8002a18:	f1a5 022f 	sub.w	r2, r5, #47	; 0x2f
 8002a1c:	4255      	negs	r5, r2
 8002a1e:	4155      	adcs	r5, r2
 8002a20:	3901      	subs	r1, #1
 8002a22:	e6bd      	b.n	80027a0 <FileManagerShow+0x34c>
 8002a24:	6a62      	ldr	r2, [r4, #36]	; 0x24
 8002a26:	6013      	str	r3, [r2, #0]
 8002a28:	6aa2      	ldr	r2, [r4, #40]	; 0x28
 8002a2a:	6013      	str	r3, [r2, #0]
 8002a2c:	e6d1      	b.n	80027d2 <FileManagerShow+0x37e>
 8002a2e:	f89d 32a0 	ldrb.w	r3, [sp, #672]	; 0x2a0
 8002a32:	06db      	lsls	r3, r3, #27
 8002a34:	d552      	bpl.n	8002adc <FileManagerShow+0x688>
 8002a36:	69e6      	ldr	r6, [r4, #28]
 8002a38:	4630      	mov	r0, r6
 8002a3a:	f001 fd49 	bl	80044d0 <my_strlen>
 8002a3e:	4605      	mov	r5, r0
 8002a40:	f20d 20ae 	addw	r0, sp, #686	; 0x2ae
 8002a44:	f001 fd44 	bl	80044d0 <my_strlen>
 8002a48:	4428      	add	r0, r5
 8002a4a:	1c81      	adds	r1, r0, #2
 8002a4c:	4630      	mov	r0, r6
 8002a4e:	f001 fe85 	bl	800475c <realloc>
 8002a52:	4921      	ldr	r1, [pc, #132]	; (8002ad8 <FileManagerShow+0x684>)
 8002a54:	61e0      	str	r0, [r4, #28]
 8002a56:	f001 fd57 	bl	8004508 <my_strcat>
 8002a5a:	69e0      	ldr	r0, [r4, #28]
 8002a5c:	f20d 21ae 	addw	r1, sp, #686	; 0x2ae
 8002a60:	f001 fd52 	bl	8004508 <my_strcat>
 8002a64:	6ae3      	ldr	r3, [r4, #44]	; 0x2c
 8002a66:	6a60      	ldr	r0, [r4, #36]	; 0x24
 8002a68:	6b62      	ldr	r2, [r4, #52]	; 0x34
 8002a6a:	f840 2023 	str.w	r2, [r0, r3, lsl #2]
 8002a6e:	e9d4 320a 	ldrd	r3, r2, [r4, #40]	; 0x28
 8002a72:	6ba1      	ldr	r1, [r4, #56]	; 0x38
 8002a74:	f843 1022 	str.w	r1, [r3, r2, lsl #2]
 8002a78:	6ae1      	ldr	r1, [r4, #44]	; 0x2c
 8002a7a:	1c4b      	adds	r3, r1, #1
 8002a7c:	3102      	adds	r1, #2
 8002a7e:	62e3      	str	r3, [r4, #44]	; 0x2c
 8002a80:	0089      	lsls	r1, r1, #2
 8002a82:	f001 fe6b 	bl	800475c <realloc>
 8002a86:	6ae1      	ldr	r1, [r4, #44]	; 0x2c
 8002a88:	6260      	str	r0, [r4, #36]	; 0x24
 8002a8a:	3101      	adds	r1, #1
 8002a8c:	0089      	lsls	r1, r1, #2
 8002a8e:	6aa0      	ldr	r0, [r4, #40]	; 0x28
 8002a90:	f001 fe64 	bl	800475c <realloc>
 8002a94:	6a62      	ldr	r2, [r4, #36]	; 0x24
 8002a96:	6ae1      	ldr	r1, [r4, #44]	; 0x2c
 8002a98:	62a0      	str	r0, [r4, #40]	; 0x28
 8002a9a:	2300      	movs	r3, #0
 8002a9c:	f842 3021 	str.w	r3, [r2, r1, lsl #2]
 8002aa0:	6ae2      	ldr	r2, [r4, #44]	; 0x2c
 8002aa2:	f840 3022 	str.w	r3, [r0, r2, lsl #2]
 8002aa6:	e695      	b.n	80027d4 <FileManagerShow+0x380>
 8002aa8:	08006d1d 	.word	0x08006d1d
 8002aac:	08006fbc 	.word	0x08006fbc
 8002ab0:	08006fa4 	.word	0x08006fa4
 8002ab4:	08006d20 	.word	0x08006d20
 8002ab8:	08006e7a 	.word	0x08006e7a
 8002abc:	08006dc1 	.word	0x08006dc1
 8002ac0:	08006f25 	.word	0x08006f25
 8002ac4:	08006fcc 	.word	0x08006fcc
 8002ac8:	08006fac 	.word	0x08006fac
 8002acc:	08006f9c 	.word	0x08006f9c
 8002ad0:	08006fb4 	.word	0x08006fb4
 8002ad4:	08006fc4 	.word	0x08006fc4
 8002ad8:	080049d0 	.word	0x080049d0
 8002adc:	6a20      	ldr	r0, [r4, #32]
 8002ade:	b108      	cbz	r0, 8002ae4 <FileManagerShow+0x690>
 8002ae0:	f001 fd88 	bl	80045f4 <free>
 8002ae4:	f20d 20ae 	addw	r0, sp, #686	; 0x2ae
 8002ae8:	f001 fd1c 	bl	8004524 <my_strcpy_mem>
 8002aec:	f44f 7380 	mov.w	r3, #256	; 0x100
 8002af0:	6220      	str	r0, [r4, #32]
 8002af2:	8623      	strh	r3, [r4, #48]	; 0x30
 8002af4:	b672      	cpsid	i
 8002af6:	f3bf 8f4f 	dsb	sy
 8002afa:	f3bf 8f6f 	isb	sy
 8002afe:	a814      	add	r0, sp, #80	; 0x50
 8002b00:	f001 fc20 	bl	8004344 <f_closedir>
 8002b04:	b662      	cpsie	i
 8002b06:	e4cc      	b.n	80024a2 <FileManagerShow+0x4e>
 8002b08:	2801      	cmp	r0, #1
 8002b0a:	f43f af12 	beq.w	8002932 <FileManagerShow+0x4de>
 8002b0e:	f50d 73cb 	add.w	r3, sp, #406	; 0x196
 8002b12:	181d      	adds	r5, r3, r0
 8002b14:	4628      	mov	r0, r5
 8002b16:	920a      	str	r2, [sp, #40]	; 0x28
 8002b18:	f001 fcda 	bl	80044d0 <my_strlen>
 8002b1c:	9a0a      	ldr	r2, [sp, #40]	; 0x28
 8002b1e:	f50d 71cb 	add.w	r1, sp, #406	; 0x196
 8002b22:	1a12      	subs	r2, r2, r0
 8002b24:	a820      	add	r0, sp, #128	; 0x80
 8002b26:	f001 fcbb 	bl	80044a0 <my_strcpy_fixed_sym>
 8002b2a:	a820      	add	r0, sp, #128	; 0x80
 8002b2c:	f001 fcd0 	bl	80044d0 <my_strlen>
 8002b30:	4606      	mov	r6, r0
 8002b32:	4628      	mov	r0, r5
 8002b34:	f001 fccc 	bl	80044d0 <my_strlen>
 8002b38:	9b09      	ldr	r3, [sp, #36]	; 0x24
 8002b3a:	490a      	ldr	r1, [pc, #40]	; (8002b64 <FileManagerShow+0x710>)
 8002b3c:	4430      	add	r0, r6
 8002b3e:	1a1a      	subs	r2, r3, r0
 8002b40:	a820      	add	r0, sp, #128	; 0x80
 8002b42:	f001 fccc 	bl	80044de <my_strcat_fixed_sym>
 8002b46:	a820      	add	r0, sp, #128	; 0x80
 8002b48:	f001 fcc2 	bl	80044d0 <my_strlen>
 8002b4c:	9b09      	ldr	r3, [sp, #36]	; 0x24
 8002b4e:	4629      	mov	r1, r5
 8002b50:	1a1a      	subs	r2, r3, r0
 8002b52:	a820      	add	r0, sp, #128	; 0x80
 8002b54:	f001 fcc3 	bl	80044de <my_strcat_fixed_sym>
 8002b58:	e6d0      	b.n	80028fc <FileManagerShow+0x4a8>
 8002b5a:	2a00      	cmp	r2, #0
 8002b5c:	f43f ae04 	beq.w	8002768 <FileManagerShow+0x314>
 8002b60:	e5f1      	b.n	8002746 <FileManagerShow+0x2f2>
 8002b62:	bf00      	nop
 8002b64:	08006d1d 	.word	0x08006d1d

08002b68 <FileManagerNew>:
 8002b68:	b510      	push	{r4, lr}
 8002b6a:	2168      	movs	r1, #104	; 0x68
 8002b6c:	2001      	movs	r0, #1
 8002b6e:	f001 fd23 	bl	80045b8 <calloc>
 8002b72:	2104      	movs	r1, #4
 8002b74:	4604      	mov	r4, r0
 8002b76:	2001      	movs	r0, #1
 8002b78:	f001 fd1e 	bl	80045b8 <calloc>
 8002b7c:	2104      	movs	r1, #4
 8002b7e:	6260      	str	r0, [r4, #36]	; 0x24
 8002b80:	2001      	movs	r0, #1
 8002b82:	f001 fd19 	bl	80045b8 <calloc>
 8002b86:	62a0      	str	r0, [r4, #40]	; 0x28
 8002b88:	480c      	ldr	r0, [pc, #48]	; (8002bbc <FileManagerNew+0x54>)
 8002b8a:	f001 fccb 	bl	8004524 <my_strcpy_mem>
 8002b8e:	4b0c      	ldr	r3, [pc, #48]	; (8002bc0 <FileManagerNew+0x58>)
 8002b90:	6423      	str	r3, [r4, #64]	; 0x40
 8002b92:	4b0c      	ldr	r3, [pc, #48]	; (8002bc4 <FileManagerNew+0x5c>)
 8002b94:	6463      	str	r3, [r4, #68]	; 0x44
 8002b96:	4b0c      	ldr	r3, [pc, #48]	; (8002bc8 <FileManagerNew+0x60>)
 8002b98:	64a3      	str	r3, [r4, #72]	; 0x48
 8002b9a:	4b0c      	ldr	r3, [pc, #48]	; (8002bcc <FileManagerNew+0x64>)
 8002b9c:	64e3      	str	r3, [r4, #76]	; 0x4c
 8002b9e:	4b0c      	ldr	r3, [pc, #48]	; (8002bd0 <FileManagerNew+0x68>)
 8002ba0:	6523      	str	r3, [r4, #80]	; 0x50
 8002ba2:	4b0c      	ldr	r3, [pc, #48]	; (8002bd4 <FileManagerNew+0x6c>)
 8002ba4:	6563      	str	r3, [r4, #84]	; 0x54
 8002ba6:	4b0c      	ldr	r3, [pc, #48]	; (8002bd8 <FileManagerNew+0x70>)
 8002ba8:	65a3      	str	r3, [r4, #88]	; 0x58
 8002baa:	4b0c      	ldr	r3, [pc, #48]	; (8002bdc <FileManagerNew+0x74>)
 8002bac:	65e3      	str	r3, [r4, #92]	; 0x5c
 8002bae:	4b0c      	ldr	r3, [pc, #48]	; (8002be0 <FileManagerNew+0x78>)
 8002bb0:	6623      	str	r3, [r4, #96]	; 0x60
 8002bb2:	4b0c      	ldr	r3, [pc, #48]	; (8002be4 <FileManagerNew+0x7c>)
 8002bb4:	61e0      	str	r0, [r4, #28]
 8002bb6:	6663      	str	r3, [r4, #100]	; 0x64
 8002bb8:	4620      	mov	r0, r4
 8002bba:	bd10      	pop	{r4, pc}
 8002bbc:	08004a11 	.word	0x08004a11
 8002bc0:	080023a1 	.word	0x080023a1
 8002bc4:	080023a5 	.word	0x080023a5
 8002bc8:	080023b1 	.word	0x080023b1
 8002bcc:	080023b5 	.word	0x080023b5
 8002bd0:	080023b9 	.word	0x080023b9
 8002bd4:	080023c7 	.word	0x080023c7
 8002bd8:	08002455 	.word	0x08002455
 8002bdc:	080023cd 	.word	0x080023cd
 8002be0:	080023d3 	.word	0x080023d3
 8002be4:	080023d7 	.word	0x080023d7

08002be8 <FileManagerPopupWin>:
 8002be8:	e92d 4ff0 	stmdb	sp!, {r4, r5, r6, r7, r8, r9, sl, fp, lr}
 8002bec:	ed2d 8b02 	vpush	{d8}
 8002bf0:	6982      	ldr	r2, [r0, #24]
 8002bf2:	68c6      	ldr	r6, [r0, #12]
 8002bf4:	ee08 1a10 	vmov	s16, r1
 8002bf8:	7811      	ldrb	r1, [r2, #0]
 8002bfa:	fb96 f6f1 	sdiv	r6, r6, r1
 8002bfe:	b087      	sub	sp, #28
 8002c00:	434e      	muls	r6, r1
 8002c02:	eb01 0a41 	add.w	sl, r1, r1, lsl #1
 8002c06:	004b      	lsls	r3, r1, #1
 8002c08:	4556      	cmp	r6, sl
 8002c0a:	4604      	mov	r4, r0
 8002c0c:	9305      	str	r3, [sp, #20]
 8002c0e:	db32      	blt.n	8002c76 <FileManagerPopupWin+0x8e>
 8002c10:	7855      	ldrb	r5, [r2, #1]
 8002c12:	6902      	ldr	r2, [r0, #16]
 8002c14:	fb92 f2f5 	sdiv	r2, r2, r5
 8002c18:	fb05 f802 	mul.w	r8, r5, r2
 8002c1c:	4545      	cmp	r5, r8
 8002c1e:	dc2a      	bgt.n	8002c76 <FileManagerPopupWin+0x8e>
 8002c20:	eba6 020a 	sub.w	r2, r6, sl
 8002c24:	eb02 72d2 	add.w	r2, r2, r2, lsr #31
 8002c28:	1052      	asrs	r2, r2, #1
 8002c2a:	fb92 f2f1 	sdiv	r2, r2, r1
 8002c2e:	eba8 0105 	sub.w	r1, r8, r5
 8002c32:	6843      	ldr	r3, [r0, #4]
 8002c34:	9302      	str	r3, [sp, #8]
 8002c36:	1049      	asrs	r1, r1, #1
 8002c38:	fbb1 f1f5 	udiv	r1, r1, r5
 8002c3c:	428a      	cmp	r2, r1
 8002c3e:	4613      	mov	r3, r2
 8002c40:	bfb8      	it	lt
 8002c42:	460b      	movlt	r3, r1
 8002c44:	6d42      	ldr	r2, [r0, #84]	; 0x54
 8002c46:	9304      	str	r3, [sp, #16]
 8002c48:	2101      	movs	r1, #1
 8002c4a:	f8d0 b008 	ldr.w	fp, [r0, #8]
 8002c4e:	4790      	blx	r2
 8002c50:	006b      	lsls	r3, r5, #1
 8002c52:	9303      	str	r3, [sp, #12]
 8002c54:	f04f 0900 	mov.w	r9, #0
 8002c58:	9b04      	ldr	r3, [sp, #16]
 8002c5a:	4599      	cmp	r9, r3
 8002c5c:	d110      	bne.n	8002c80 <FileManagerPopupWin+0x98>
 8002c5e:	6d63      	ldr	r3, [r4, #84]	; 0x54
 8002c60:	2100      	movs	r1, #0
 8002c62:	4620      	mov	r0, r4
 8002c64:	4798      	blx	r3
 8002c66:	6c65      	ldr	r5, [r4, #68]	; 0x44
 8002c68:	9902      	ldr	r1, [sp, #8]
 8002c6a:	f8cd 8000 	str.w	r8, [sp]
 8002c6e:	4633      	mov	r3, r6
 8002c70:	465a      	mov	r2, fp
 8002c72:	4620      	mov	r0, r4
 8002c74:	47a8      	blx	r5
 8002c76:	b007      	add	sp, #28
 8002c78:	ecbd 8b02 	vpop	{d8}
 8002c7c:	e8bd 8ff0 	ldmia.w	sp!, {r4, r5, r6, r7, r8, r9, sl, fp, pc}
 8002c80:	9802      	ldr	r0, [sp, #8]
 8002c82:	9500      	str	r5, [sp, #0]
 8002c84:	eba8 0205 	sub.w	r2, r8, r5
 8002c88:	eba6 010a 	sub.w	r1, r6, sl
 8002c8c:	eb02 72d2 	add.w	r2, r2, r2, lsr #31
 8002c90:	eb01 71d1 	add.w	r1, r1, r1, lsr #31
 8002c94:	4653      	mov	r3, sl
 8002c96:	eb00 0161 	add.w	r1, r0, r1, asr #1
 8002c9a:	eb0b 0262 	add.w	r2, fp, r2, asr #1
 8002c9e:	4620      	mov	r0, r4
 8002ca0:	6c67      	ldr	r7, [r4, #68]	; 0x44
 8002ca2:	47b8      	blx	r7
 8002ca4:	6da2      	ldr	r2, [r4, #88]	; 0x58
 8002ca6:	4620      	mov	r0, r4
 8002ca8:	4790      	blx	r2
 8002caa:	ee18 0a10 	vmov	r0, s16
 8002cae:	f7fe ffdb 	bl	8001c68 <LL_mDelay>
 8002cb2:	9b05      	ldr	r3, [sp, #20]
 8002cb4:	eb03 020a 	add.w	r2, r3, sl
 8002cb8:	9b03      	ldr	r3, [sp, #12]
 8002cba:	1959      	adds	r1, r3, r5
 8002cbc:	f109 0901 	add.w	r9, r9, #1
 8002cc0:	4588      	cmp	r8, r1
 8002cc2:	bfa8      	it	ge
 8002cc4:	460d      	movge	r5, r1
 8002cc6:	4296      	cmp	r6, r2
 8002cc8:	bfa8      	it	ge
 8002cca:	4692      	movge	sl, r2
 8002ccc:	e7c4      	b.n	8002c58 <FileManagerPopupWin+0x70>
	...

08002cd0 <KEYB_Add_Button>:
 8002cd0:	e92d 47f0 	stmdb	sp!, {r4, r5, r6, r7, r8, r9, sl, lr}
 8002cd4:	f8df 9048 	ldr.w	r9, [pc, #72]	; 8002d20 <KEYB_Add_Button+0x50>
 8002cd8:	f8df a048 	ldr.w	sl, [pc, #72]	; 8002d24 <KEYB_Add_Button+0x54>
 8002cdc:	f899 4000 	ldrb.w	r4, [r9]
 8002ce0:	3401      	adds	r4, #1
 8002ce2:	b2e4      	uxtb	r4, r4
 8002ce4:	f889 4000 	strb.w	r4, [r9]
 8002ce8:	eb04 0444 	add.w	r4, r4, r4, lsl #1
 8002cec:	4607      	mov	r7, r0
 8002cee:	460e      	mov	r6, r1
 8002cf0:	f8da 0000 	ldr.w	r0, [sl]
 8002cf4:	00a1      	lsls	r1, r4, #2
 8002cf6:	4690      	mov	r8, r2
 8002cf8:	461d      	mov	r5, r3
 8002cfa:	f001 fd2f 	bl	800475c <realloc>
 8002cfe:	f899 1000 	ldrb.w	r1, [r9]
 8002d02:	f8ca 0000 	str.w	r0, [sl]
 8002d06:	f06f 020b 	mvn.w	r2, #11
 8002d0a:	230c      	movs	r3, #12
 8002d0c:	fb13 2301 	smlabb	r3, r3, r1, r2
 8002d10:	18c2      	adds	r2, r0, r3
 8002d12:	50c7      	str	r7, [r0, r3]
 8002d14:	f882 8008 	strb.w	r8, [r2, #8]
 8002d18:	7255      	strb	r5, [r2, #9]
 8002d1a:	6056      	str	r6, [r2, #4]
 8002d1c:	e8bd 87f0 	ldmia.w	sp!, {r4, r5, r6, r7, r8, r9, sl, pc}
 8002d20:	20000596 	.word	0x20000596
 8002d24:	200005ec 	.word	0x200005ec

08002d28 <KEYB_Inkeys>:
 8002d28:	4a10      	ldr	r2, [pc, #64]	; (8002d6c <KEYB_Inkeys+0x44>)
 8002d2a:	68d3      	ldr	r3, [r2, #12]
 8002d2c:	b570      	push	{r4, r5, r6, lr}
 8002d2e:	f023 0301 	bic.w	r3, r3, #1
 8002d32:	4e0f      	ldr	r6, [pc, #60]	; (8002d70 <KEYB_Inkeys+0x48>)
 8002d34:	60d3      	str	r3, [r2, #12]
 8002d36:	7835      	ldrb	r5, [r6, #0]
 8002d38:	b1ad      	cbz	r5, 8002d66 <KEYB_Inkeys+0x3e>
 8002d3a:	4b0e      	ldr	r3, [pc, #56]	; (8002d74 <KEYB_Inkeys+0x4c>)
 8002d3c:	781c      	ldrb	r4, [r3, #0]
 8002d3e:	b15c      	cbz	r4, 8002d58 <KEYB_Inkeys+0x30>
 8002d40:	4b0d      	ldr	r3, [pc, #52]	; (8002d78 <KEYB_Inkeys+0x50>)
 8002d42:	4619      	mov	r1, r3
 8002d44:	224c      	movs	r2, #76	; 0x4c
 8002d46:	f851 4b04 	ldr.w	r4, [r1], #4
 8002d4a:	4618      	mov	r0, r3
 8002d4c:	f001 fd3d 	bl	80047ca <memmove>
 8002d50:	3d01      	subs	r5, #1
 8002d52:	2200      	movs	r2, #0
 8002d54:	7035      	strb	r5, [r6, #0]
 8002d56:	64c2      	str	r2, [r0, #76]	; 0x4c
 8002d58:	4a04      	ldr	r2, [pc, #16]	; (8002d6c <KEYB_Inkeys+0x44>)
 8002d5a:	68d3      	ldr	r3, [r2, #12]
 8002d5c:	f043 0301 	orr.w	r3, r3, #1
 8002d60:	60d3      	str	r3, [r2, #12]
 8002d62:	4620      	mov	r0, r4
 8002d64:	bd70      	pop	{r4, r5, r6, pc}
 8002d66:	462c      	mov	r4, r5
 8002d68:	e7f6      	b.n	8002d58 <KEYB_Inkeys+0x30>
 8002d6a:	bf00      	nop
 8002d6c:	40014400 	.word	0x40014400
 8002d70:	20000598 	.word	0x20000598
 8002d74:	20000596 	.word	0x20000596
 8002d78:	2000059c 	.word	0x2000059c

08002d7c <KEYB_Input_Keys>:
 8002d7c:	4a33      	ldr	r2, [pc, #204]	; (8002e4c <KEYB_Input_Keys+0xd0>)
 8002d7e:	b5f0      	push	{r4, r5, r6, r7, lr}
 8002d80:	6913      	ldr	r3, [r2, #16]
 8002d82:	f023 0301 	bic.w	r3, r3, #1
 8002d86:	6113      	str	r3, [r2, #16]
 8002d88:	4b31      	ldr	r3, [pc, #196]	; (8002e50 <KEYB_Input_Keys+0xd4>)
 8002d8a:	781c      	ldrb	r4, [r3, #0]
 8002d8c:	2c00      	cmp	r4, #0
 8002d8e:	d02c      	beq.n	8002dea <KEYB_Input_Keys+0x6e>
 8002d90:	4b30      	ldr	r3, [pc, #192]	; (8002e54 <KEYB_Input_Keys+0xd8>)
 8002d92:	2100      	movs	r1, #0
 8002d94:	681a      	ldr	r2, [r3, #0]
 8002d96:	2501      	movs	r5, #1
 8002d98:	460b      	mov	r3, r1
 8002d9a:	7a50      	ldrb	r0, [r2, #9]
 8002d9c:	3101      	adds	r1, #1
 8002d9e:	b940      	cbnz	r0, 8002db2 <KEYB_Input_Keys+0x36>
 8002da0:	6810      	ldr	r0, [r2, #0]
 8002da2:	6906      	ldr	r6, [r0, #16]
 8002da4:	6850      	ldr	r0, [r2, #4]
 8002da6:	4206      	tst	r6, r0
 8002da8:	bf02      	ittt	eq
 8002daa:	7a10      	ldrbeq	r0, [r2, #8]
 8002dac:	fa05 f000 	lsleq.w	r0, r5, r0
 8002db0:	4303      	orreq	r3, r0
 8002db2:	428c      	cmp	r4, r1
 8002db4:	f102 020c 	add.w	r2, r2, #12
 8002db8:	dcef      	bgt.n	8002d9a <KEYB_Input_Keys+0x1e>
 8002dba:	4a27      	ldr	r2, [pc, #156]	; (8002e58 <KEYB_Input_Keys+0xdc>)
 8002dbc:	4927      	ldr	r1, [pc, #156]	; (8002e5c <KEYB_Input_Keys+0xe0>)
 8002dbe:	2b00      	cmp	r3, #0
 8002dc0:	d03a      	beq.n	8002e38 <KEYB_Input_Keys+0xbc>
 8002dc2:	6810      	ldr	r0, [r2, #0]
 8002dc4:	4298      	cmp	r0, r3
 8002dc6:	d137      	bne.n	8002e38 <KEYB_Input_Keys+0xbc>
 8002dc8:	780a      	ldrb	r2, [r1, #0]
 8002dca:	3201      	adds	r2, #1
 8002dcc:	b2d2      	uxtb	r2, r2
 8002dce:	2a01      	cmp	r2, #1
 8002dd0:	700a      	strb	r2, [r1, #0]
 8002dd2:	d90a      	bls.n	8002dea <KEYB_Input_Keys+0x6e>
 8002dd4:	4d22      	ldr	r5, [pc, #136]	; (8002e60 <KEYB_Input_Keys+0xe4>)
 8002dd6:	782a      	ldrb	r2, [r5, #0]
 8002dd8:	b1a2      	cbz	r2, 8002e04 <KEYB_Input_Keys+0x88>
 8002dda:	2202      	movs	r2, #2
 8002ddc:	700a      	strb	r2, [r1, #0]
 8002dde:	4921      	ldr	r1, [pc, #132]	; (8002e64 <KEYB_Input_Keys+0xe8>)
 8002de0:	680a      	ldr	r2, [r1, #0]
 8002de2:	3201      	adds	r2, #1
 8002de4:	2a07      	cmp	r2, #7
 8002de6:	d801      	bhi.n	8002dec <KEYB_Input_Keys+0x70>
 8002de8:	600a      	str	r2, [r1, #0]
 8002dea:	bdf0      	pop	{r4, r5, r6, r7, pc}
 8002dec:	2200      	movs	r2, #0
 8002dee:	600a      	str	r2, [r1, #0]
 8002df0:	491d      	ldr	r1, [pc, #116]	; (8002e68 <KEYB_Input_Keys+0xec>)
 8002df2:	780a      	ldrb	r2, [r1, #0]
 8002df4:	2a13      	cmp	r2, #19
 8002df6:	d8f8      	bhi.n	8002dea <KEYB_Input_Keys+0x6e>
 8002df8:	481c      	ldr	r0, [pc, #112]	; (8002e6c <KEYB_Input_Keys+0xf0>)
 8002dfa:	f840 3022 	str.w	r3, [r0, r2, lsl #2]
 8002dfe:	3201      	adds	r2, #1
 8002e00:	700a      	strb	r2, [r1, #0]
 8002e02:	e7f2      	b.n	8002dea <KEYB_Input_Keys+0x6e>
 8002e04:	4c1a      	ldr	r4, [pc, #104]	; (8002e70 <KEYB_Input_Keys+0xf4>)
 8002e06:	6822      	ldr	r2, [r4, #0]
 8002e08:	b942      	cbnz	r2, 8002e1c <KEYB_Input_Keys+0xa0>
 8002e0a:	4e17      	ldr	r6, [pc, #92]	; (8002e68 <KEYB_Input_Keys+0xec>)
 8002e0c:	7830      	ldrb	r0, [r6, #0]
 8002e0e:	2813      	cmp	r0, #19
 8002e10:	bf9f      	itttt	ls
 8002e12:	4f16      	ldrls	r7, [pc, #88]	; (8002e6c <KEYB_Input_Keys+0xf0>)
 8002e14:	f847 3020 	strls.w	r3, [r7, r0, lsl #2]
 8002e18:	3001      	addls	r0, #1
 8002e1a:	7030      	strbls	r0, [r6, #0]
 8002e1c:	3201      	adds	r2, #1
 8002e1e:	2a63      	cmp	r2, #99	; 0x63
 8002e20:	d801      	bhi.n	8002e26 <KEYB_Input_Keys+0xaa>
 8002e22:	6022      	str	r2, [r4, #0]
 8002e24:	e7e1      	b.n	8002dea <KEYB_Input_Keys+0x6e>
 8002e26:	2201      	movs	r2, #1
 8002e28:	702a      	strb	r2, [r5, #0]
 8002e2a:	4a0e      	ldr	r2, [pc, #56]	; (8002e64 <KEYB_Input_Keys+0xe8>)
 8002e2c:	2300      	movs	r3, #0
 8002e2e:	6023      	str	r3, [r4, #0]
 8002e30:	6013      	str	r3, [r2, #0]
 8002e32:	2302      	movs	r3, #2
 8002e34:	700b      	strb	r3, [r1, #0]
 8002e36:	e7d8      	b.n	8002dea <KEYB_Input_Keys+0x6e>
 8002e38:	6013      	str	r3, [r2, #0]
 8002e3a:	4a09      	ldr	r2, [pc, #36]	; (8002e60 <KEYB_Input_Keys+0xe4>)
 8002e3c:	2300      	movs	r3, #0
 8002e3e:	7013      	strb	r3, [r2, #0]
 8002e40:	4a08      	ldr	r2, [pc, #32]	; (8002e64 <KEYB_Input_Keys+0xe8>)
 8002e42:	700b      	strb	r3, [r1, #0]
 8002e44:	6013      	str	r3, [r2, #0]
 8002e46:	4a0a      	ldr	r2, [pc, #40]	; (8002e70 <KEYB_Input_Keys+0xf4>)
 8002e48:	6013      	str	r3, [r2, #0]
 8002e4a:	e7ce      	b.n	8002dea <KEYB_Input_Keys+0x6e>
 8002e4c:	40014400 	.word	0x40014400
 8002e50:	20000596 	.word	0x20000596
 8002e54:	200005ec 	.word	0x200005ec
 8002e58:	200005f0 	.word	0x200005f0
 8002e5c:	20000597 	.word	0x20000597
 8002e60:	200005f8 	.word	0x200005f8
 8002e64:	200005f4 	.word	0x200005f4
 8002e68:	20000598 	.word	0x20000598
 8002e6c:	2000059c 	.word	0x2000059c
 8002e70:	200005fc 	.word	0x200005fc

08002e74 <disk_status>:
 8002e74:	4b03      	ldr	r3, [pc, #12]	; (8002e84 <disk_status+0x10>)
 8002e76:	181a      	adds	r2, r3, r0
 8002e78:	eb03 0080 	add.w	r0, r3, r0, lsl #2
 8002e7c:	6843      	ldr	r3, [r0, #4]
 8002e7e:	7a10      	ldrb	r0, [r2, #8]
 8002e80:	685b      	ldr	r3, [r3, #4]
 8002e82:	4718      	bx	r3
 8002e84:	20000808 	.word	0x20000808

08002e88 <disk_initialize>:
 8002e88:	4b06      	ldr	r3, [pc, #24]	; (8002ea4 <disk_initialize+0x1c>)
 8002e8a:	5c1a      	ldrb	r2, [r3, r0]
 8002e8c:	b942      	cbnz	r2, 8002ea0 <disk_initialize+0x18>
 8002e8e:	2201      	movs	r2, #1
 8002e90:	541a      	strb	r2, [r3, r0]
 8002e92:	181a      	adds	r2, r3, r0
 8002e94:	eb03 0080 	add.w	r0, r3, r0, lsl #2
 8002e98:	6843      	ldr	r3, [r0, #4]
 8002e9a:	7a10      	ldrb	r0, [r2, #8]
 8002e9c:	681b      	ldr	r3, [r3, #0]
 8002e9e:	4718      	bx	r3
 8002ea0:	2000      	movs	r0, #0
 8002ea2:	4770      	bx	lr
 8002ea4:	20000808 	.word	0x20000808

08002ea8 <disk_read>:
 8002ea8:	b430      	push	{r4, r5}
 8002eaa:	4c05      	ldr	r4, [pc, #20]	; (8002ec0 <disk_read+0x18>)
 8002eac:	1825      	adds	r5, r4, r0
 8002eae:	eb04 0080 	add.w	r0, r4, r0, lsl #2
 8002eb2:	6840      	ldr	r0, [r0, #4]
 8002eb4:	6884      	ldr	r4, [r0, #8]
 8002eb6:	7a28      	ldrb	r0, [r5, #8]
 8002eb8:	46a4      	mov	ip, r4
 8002eba:	bc30      	pop	{r4, r5}
 8002ebc:	4760      	bx	ip
 8002ebe:	bf00      	nop
 8002ec0:	20000808 	.word	0x20000808

08002ec4 <disk_write>:
 8002ec4:	b430      	push	{r4, r5}
 8002ec6:	4c05      	ldr	r4, [pc, #20]	; (8002edc <disk_write+0x18>)
 8002ec8:	1825      	adds	r5, r4, r0
 8002eca:	eb04 0080 	add.w	r0, r4, r0, lsl #2
 8002ece:	6840      	ldr	r0, [r0, #4]
 8002ed0:	68c4      	ldr	r4, [r0, #12]
 8002ed2:	7a28      	ldrb	r0, [r5, #8]
 8002ed4:	46a4      	mov	ip, r4
 8002ed6:	bc30      	pop	{r4, r5}
 8002ed8:	4760      	bx	ip
 8002eda:	bf00      	nop
 8002edc:	20000808 	.word	0x20000808

08002ee0 <disk_ioctl>:
 8002ee0:	4b05      	ldr	r3, [pc, #20]	; (8002ef8 <disk_ioctl+0x18>)
 8002ee2:	b410      	push	{r4}
 8002ee4:	181c      	adds	r4, r3, r0
 8002ee6:	eb03 0080 	add.w	r0, r3, r0, lsl #2
 8002eea:	6843      	ldr	r3, [r0, #4]
 8002eec:	7a20      	ldrb	r0, [r4, #8]
 8002eee:	691b      	ldr	r3, [r3, #16]
 8002ef0:	f85d 4b04 	ldr.w	r4, [sp], #4
 8002ef4:	4718      	bx	r3
 8002ef6:	bf00      	nop
 8002ef8:	20000808 	.word	0x20000808

08002efc <ld_dword>:
 8002efc:	6800      	ldr	r0, [r0, #0]
 8002efe:	4770      	bx	lr

08002f00 <st_dword>:
 8002f00:	0a0b      	lsrs	r3, r1, #8
 8002f02:	7001      	strb	r1, [r0, #0]
 8002f04:	7043      	strb	r3, [r0, #1]
 8002f06:	0c0b      	lsrs	r3, r1, #16
 8002f08:	0e09      	lsrs	r1, r1, #24
 8002f0a:	7083      	strb	r3, [r0, #2]
 8002f0c:	70c1      	strb	r1, [r0, #3]
 8002f0e:	4770      	bx	lr

08002f10 <mem_set>:
 8002f10:	4402      	add	r2, r0
 8002f12:	f800 1b01 	strb.w	r1, [r0], #1
 8002f16:	4290      	cmp	r0, r2
 8002f18:	d1fb      	bne.n	8002f12 <mem_set+0x2>
 8002f1a:	4770      	bx	lr

08002f1c <clust2sect>:
 8002f1c:	6983      	ldr	r3, [r0, #24]
 8002f1e:	3902      	subs	r1, #2
 8002f20:	3b02      	subs	r3, #2
 8002f22:	428b      	cmp	r3, r1
 8002f24:	bf83      	ittte	hi
 8002f26:	8943      	ldrhhi	r3, [r0, #10]
 8002f28:	6ac0      	ldrhi	r0, [r0, #44]	; 0x2c
 8002f2a:	fb01 0003 	mlahi	r0, r1, r3, r0
 8002f2e:	2000      	movls	r0, #0
 8002f30:	4770      	bx	lr

08002f32 <st_clust>:
 8002f32:	f3c2 2307 	ubfx	r3, r2, #8, #8
 8002f36:	768a      	strb	r2, [r1, #26]
 8002f38:	76cb      	strb	r3, [r1, #27]
 8002f3a:	7803      	ldrb	r3, [r0, #0]
 8002f3c:	2b03      	cmp	r3, #3
 8002f3e:	bf01      	itttt	eq
 8002f40:	0c12      	lsreq	r2, r2, #16
 8002f42:	750a      	strbeq	r2, [r1, #20]
 8002f44:	0a12      	lsreq	r2, r2, #8
 8002f46:	754a      	strbeq	r2, [r1, #21]
 8002f48:	4770      	bx	lr

08002f4a <sum_sfn>:
 8002f4a:	f100 010b 	add.w	r1, r0, #11
 8002f4e:	2200      	movs	r2, #0
 8002f50:	01d3      	lsls	r3, r2, #7
 8002f52:	ea43 0352 	orr.w	r3, r3, r2, lsr #1
 8002f56:	f810 2b01 	ldrb.w	r2, [r0], #1
 8002f5a:	fa52 f383 	uxtab	r3, r2, r3
 8002f5e:	4288      	cmp	r0, r1
 8002f60:	b2da      	uxtb	r2, r3
 8002f62:	d1f5      	bne.n	8002f50 <sum_sfn+0x6>
 8002f64:	4610      	mov	r0, r2
 8002f66:	4770      	bx	lr

08002f68 <get_ldnumber>:
 8002f68:	6802      	ldr	r2, [r0, #0]
 8002f6a:	b510      	push	{r4, lr}
 8002f6c:	b152      	cbz	r2, 8002f84 <get_ldnumber+0x1c>
 8002f6e:	4611      	mov	r1, r2
 8002f70:	460b      	mov	r3, r1
 8002f72:	f811 4b01 	ldrb.w	r4, [r1], #1
 8002f76:	2c1f      	cmp	r4, #31
 8002f78:	d90c      	bls.n	8002f94 <get_ldnumber+0x2c>
 8002f7a:	2c3a      	cmp	r4, #58	; 0x3a
 8002f7c:	d1f8      	bne.n	8002f70 <get_ldnumber+0x8>
 8002f7e:	1c51      	adds	r1, r2, #1
 8002f80:	428b      	cmp	r3, r1
 8002f82:	d002      	beq.n	8002f8a <get_ldnumber+0x22>
 8002f84:	f04f 30ff 	mov.w	r0, #4294967295
 8002f88:	e005      	b.n	8002f96 <get_ldnumber+0x2e>
 8002f8a:	7812      	ldrb	r2, [r2, #0]
 8002f8c:	2a30      	cmp	r2, #48	; 0x30
 8002f8e:	d1f9      	bne.n	8002f84 <get_ldnumber+0x1c>
 8002f90:	3301      	adds	r3, #1
 8002f92:	6003      	str	r3, [r0, #0]
 8002f94:	2000      	movs	r0, #0
 8002f96:	bd10      	pop	{r4, pc}

08002f98 <validate>:
 8002f98:	b538      	push	{r3, r4, r5, lr}
 8002f9a:	460d      	mov	r5, r1
 8002f9c:	4604      	mov	r4, r0
 8002f9e:	b918      	cbnz	r0, 8002fa8 <validate+0x10>
 8002fa0:	2009      	movs	r0, #9
 8002fa2:	2300      	movs	r3, #0
 8002fa4:	602b      	str	r3, [r5, #0]
 8002fa6:	bd38      	pop	{r3, r4, r5, pc}
 8002fa8:	6803      	ldr	r3, [r0, #0]
 8002faa:	2b00      	cmp	r3, #0
 8002fac:	d0f8      	beq.n	8002fa0 <validate+0x8>
 8002fae:	781a      	ldrb	r2, [r3, #0]
 8002fb0:	2a00      	cmp	r2, #0
 8002fb2:	d0f5      	beq.n	8002fa0 <validate+0x8>
 8002fb4:	8881      	ldrh	r1, [r0, #4]
 8002fb6:	88da      	ldrh	r2, [r3, #6]
 8002fb8:	4291      	cmp	r1, r2
 8002fba:	d1f1      	bne.n	8002fa0 <validate+0x8>
 8002fbc:	7858      	ldrb	r0, [r3, #1]
 8002fbe:	f7ff ff59 	bl	8002e74 <disk_status>
 8002fc2:	f010 0001 	ands.w	r0, r0, #1
 8002fc6:	d1eb      	bne.n	8002fa0 <validate+0x8>
 8002fc8:	6823      	ldr	r3, [r4, #0]
 8002fca:	e7eb      	b.n	8002fa4 <validate+0xc>

08002fcc <get_fileinfo>:
 8002fcc:	e92d 41f0 	stmdb	sp!, {r4, r5, r6, r7, r8, lr}
 8002fd0:	2500      	movs	r5, #0
 8002fd2:	f8d0 8000 	ldr.w	r8, [r0]
 8002fd6:	758d      	strb	r5, [r1, #22]
 8002fd8:	6983      	ldr	r3, [r0, #24]
 8002fda:	4606      	mov	r6, r0
 8002fdc:	460c      	mov	r4, r1
 8002fde:	2b00      	cmp	r3, #0
 8002fe0:	d05a      	beq.n	8003098 <get_fileinfo+0xcc>
 8002fe2:	6ac3      	ldr	r3, [r0, #44]	; 0x2c
 8002fe4:	3301      	adds	r3, #1
 8002fe6:	d00a      	beq.n	8002ffe <get_fileinfo+0x32>
 8002fe8:	f101 0715 	add.w	r7, r1, #21
 8002fec:	f8d8 300c 	ldr.w	r3, [r8, #12]
 8002ff0:	f833 0015 	ldrh.w	r0, [r3, r5, lsl #1]
 8002ff4:	2800      	cmp	r0, #0
 8002ff6:	d151      	bne.n	800309c <get_fileinfo+0xd0>
 8002ff8:	4425      	add	r5, r4
 8002ffa:	2300      	movs	r3, #0
 8002ffc:	75ab      	strb	r3, [r5, #22]
 8002ffe:	69f1      	ldr	r1, [r6, #28]
 8003000:	7da5      	ldrb	r5, [r4, #22]
 8003002:	2300      	movs	r3, #0
 8003004:	1e4e      	subs	r6, r1, #1
 8003006:	4618      	mov	r0, r3
 8003008:	272e      	movs	r7, #46	; 0x2e
 800300a:	f816 2f01 	ldrb.w	r2, [r6, #1]!
 800300e:	2a20      	cmp	r2, #32
 8003010:	f100 0001 	add.w	r0, r0, #1
 8003014:	d026      	beq.n	8003064 <get_fileinfo+0x98>
 8003016:	2a05      	cmp	r2, #5
 8003018:	bf08      	it	eq
 800301a:	22e5      	moveq	r2, #229	; 0xe5
 800301c:	2809      	cmp	r0, #9
 800301e:	d107      	bne.n	8003030 <get_fileinfo+0x64>
 8003020:	eb04 0c03 	add.w	ip, r4, r3
 8003024:	b90d      	cbnz	r5, 800302a <get_fileinfo+0x5e>
 8003026:	f88c 7016 	strb.w	r7, [ip, #22]
 800302a:	f88c 7009 	strb.w	r7, [ip, #9]
 800302e:	3301      	adds	r3, #1
 8003030:	eb04 0c03 	add.w	ip, r4, r3
 8003034:	f88c 2009 	strb.w	r2, [ip, #9]
 8003038:	b99d      	cbnz	r5, 8003062 <get_fileinfo+0x96>
 800303a:	f1a2 0e41 	sub.w	lr, r2, #65	; 0x41
 800303e:	f1be 0f19 	cmp.w	lr, #25
 8003042:	d80c      	bhi.n	800305e <get_fileinfo+0x92>
 8003044:	2808      	cmp	r0, #8
 8003046:	f891 800c 	ldrb.w	r8, [r1, #12]
 800304a:	bf8c      	ite	hi
 800304c:	f04f 0e10 	movhi.w	lr, #16
 8003050:	f04f 0e08 	movls.w	lr, #8
 8003054:	ea18 0f0e 	tst.w	r8, lr
 8003058:	bf1c      	itt	ne
 800305a:	3220      	addne	r2, #32
 800305c:	b2d2      	uxtbne	r2, r2
 800305e:	f88c 2016 	strb.w	r2, [ip, #22]
 8003062:	3301      	adds	r3, #1
 8003064:	280b      	cmp	r0, #11
 8003066:	d1d0      	bne.n	800300a <get_fileinfo+0x3e>
 8003068:	b92d      	cbnz	r5, 8003076 <get_fileinfo+0xaa>
 800306a:	18e2      	adds	r2, r4, r3
 800306c:	7595      	strb	r5, [r2, #22]
 800306e:	7b0a      	ldrb	r2, [r1, #12]
 8003070:	2a00      	cmp	r2, #0
 8003072:	bf08      	it	eq
 8003074:	2300      	moveq	r3, #0
 8003076:	4423      	add	r3, r4
 8003078:	2200      	movs	r2, #0
 800307a:	725a      	strb	r2, [r3, #9]
 800307c:	7acb      	ldrb	r3, [r1, #11]
 800307e:	7223      	strb	r3, [r4, #8]
 8003080:	f101 001c 	add.w	r0, r1, #28
 8003084:	f7ff ff3a 	bl	8002efc <ld_dword>
 8003088:	6020      	str	r0, [r4, #0]
 800308a:	f101 0016 	add.w	r0, r1, #22
 800308e:	f7ff ff35 	bl	8002efc <ld_dword>
 8003092:	80e0      	strh	r0, [r4, #6]
 8003094:	0c00      	lsrs	r0, r0, #16
 8003096:	80a0      	strh	r0, [r4, #4]
 8003098:	e8bd 81f0 	ldmia.w	sp!, {r4, r5, r6, r7, r8, pc}
 800309c:	2100      	movs	r1, #0
 800309e:	f001 f9a1 	bl	80043e4 <ff_convert>
 80030a2:	b130      	cbz	r0, 80030b2 <get_fileinfo+0xe6>
 80030a4:	3501      	adds	r5, #1
 80030a6:	f5b5 7f80 	cmp.w	r5, #256	; 0x100
 80030aa:	d002      	beq.n	80030b2 <get_fileinfo+0xe6>
 80030ac:	f807 0f01 	strb.w	r0, [r7, #1]!
 80030b0:	e79c      	b.n	8002fec <get_fileinfo+0x20>
 80030b2:	2500      	movs	r5, #0
 80030b4:	e7a0      	b.n	8002ff8 <get_fileinfo+0x2c>

080030b6 <mem_cpy.part.0>:
 80030b6:	3801      	subs	r0, #1
 80030b8:	440a      	add	r2, r1
 80030ba:	f811 3b01 	ldrb.w	r3, [r1], #1
 80030be:	f800 3f01 	strb.w	r3, [r0, #1]!
 80030c2:	4291      	cmp	r1, r2
 80030c4:	d1f9      	bne.n	80030ba <mem_cpy.part.0+0x4>
 80030c6:	4770      	bx	lr

080030c8 <sync_window.part.0>:
 80030c8:	e92d 41f0 	stmdb	sp!, {r4, r5, r6, r7, r8, lr}
 80030cc:	6b06      	ldr	r6, [r0, #48]	; 0x30
 80030ce:	f100 0834 	add.w	r8, r0, #52	; 0x34
 80030d2:	4604      	mov	r4, r0
 80030d4:	2301      	movs	r3, #1
 80030d6:	7840      	ldrb	r0, [r0, #1]
 80030d8:	4632      	mov	r2, r6
 80030da:	4641      	mov	r1, r8
 80030dc:	f7ff fef2 	bl	8002ec4 <disk_write>
 80030e0:	4605      	mov	r5, r0
 80030e2:	b9a8      	cbnz	r0, 8003110 <sync_window.part.0+0x48>
 80030e4:	6a63      	ldr	r3, [r4, #36]	; 0x24
 80030e6:	69e2      	ldr	r2, [r4, #28]
 80030e8:	70e0      	strb	r0, [r4, #3]
 80030ea:	1af3      	subs	r3, r6, r3
 80030ec:	4293      	cmp	r3, r2
 80030ee:	d202      	bcs.n	80030f6 <sync_window.part.0+0x2e>
 80030f0:	78a7      	ldrb	r7, [r4, #2]
 80030f2:	2f01      	cmp	r7, #1
 80030f4:	d802      	bhi.n	80030fc <sync_window.part.0+0x34>
 80030f6:	4628      	mov	r0, r5
 80030f8:	e8bd 81f0 	ldmia.w	sp!, {r4, r5, r6, r7, r8, pc}
 80030fc:	69e3      	ldr	r3, [r4, #28]
 80030fe:	7860      	ldrb	r0, [r4, #1]
 8003100:	441e      	add	r6, r3
 8003102:	4632      	mov	r2, r6
 8003104:	2301      	movs	r3, #1
 8003106:	4641      	mov	r1, r8
 8003108:	f7ff fedc 	bl	8002ec4 <disk_write>
 800310c:	3f01      	subs	r7, #1
 800310e:	e7f0      	b.n	80030f2 <sync_window.part.0+0x2a>
 8003110:	2501      	movs	r5, #1
 8003112:	e7f0      	b.n	80030f6 <sync_window.part.0+0x2e>

08003114 <sync_window>:
 8003114:	78c3      	ldrb	r3, [r0, #3]
 8003116:	b10b      	cbz	r3, 800311c <sync_window+0x8>
 8003118:	f7ff bfd6 	b.w	80030c8 <sync_window.part.0>
 800311c:	4618      	mov	r0, r3
 800311e:	4770      	bx	lr

08003120 <move_window>:
 8003120:	b538      	push	{r3, r4, r5, lr}
 8003122:	6b03      	ldr	r3, [r0, #48]	; 0x30
 8003124:	428b      	cmp	r3, r1
 8003126:	4605      	mov	r5, r0
 8003128:	460c      	mov	r4, r1
 800312a:	d010      	beq.n	800314e <move_window+0x2e>
 800312c:	f7ff fff2 	bl	8003114 <sync_window>
 8003130:	b960      	cbnz	r0, 800314c <move_window+0x2c>
 8003132:	4622      	mov	r2, r4
 8003134:	7868      	ldrb	r0, [r5, #1]
 8003136:	2301      	movs	r3, #1
 8003138:	f105 0134 	add.w	r1, r5, #52	; 0x34
 800313c:	f7ff feb4 	bl	8002ea8 <disk_read>
 8003140:	2800      	cmp	r0, #0
 8003142:	bf1c      	itt	ne
 8003144:	f04f 34ff 	movne.w	r4, #4294967295
 8003148:	2001      	movne	r0, #1
 800314a:	632c      	str	r4, [r5, #48]	; 0x30
 800314c:	bd38      	pop	{r3, r4, r5, pc}
 800314e:	2000      	movs	r0, #0
 8003150:	e7fc      	b.n	800314c <move_window+0x2c>
	...

08003154 <check_fs>:
 8003154:	2300      	movs	r3, #0
 8003156:	b510      	push	{r4, lr}
 8003158:	70c3      	strb	r3, [r0, #3]
 800315a:	f04f 33ff 	mov.w	r3, #4294967295
 800315e:	6303      	str	r3, [r0, #48]	; 0x30
 8003160:	4604      	mov	r4, r0
 8003162:	f7ff ffdd 	bl	8003120 <move_window>
 8003166:	4603      	mov	r3, r0
 8003168:	bb18      	cbnz	r0, 80031b2 <check_fs+0x5e>
 800316a:	f8b4 1232 	ldrh.w	r1, [r4, #562]	; 0x232
 800316e:	f64a 2255 	movw	r2, #43605	; 0xaa55
 8003172:	4291      	cmp	r1, r2
 8003174:	d11f      	bne.n	80031b6 <check_fs+0x62>
 8003176:	f894 2034 	ldrb.w	r2, [r4, #52]	; 0x34
 800317a:	2ae9      	cmp	r2, #233	; 0xe9
 800317c:	d005      	beq.n	800318a <check_fs+0x36>
 800317e:	6b62      	ldr	r2, [r4, #52]	; 0x34
 8003180:	490f      	ldr	r1, [pc, #60]	; (80031c0 <check_fs+0x6c>)
 8003182:	f002 12ff 	and.w	r2, r2, #16711935	; 0xff00ff
 8003186:	428a      	cmp	r2, r1
 8003188:	d117      	bne.n	80031ba <check_fs+0x66>
 800318a:	f104 006a 	add.w	r0, r4, #106	; 0x6a
 800318e:	f7ff feb5 	bl	8002efc <ld_dword>
 8003192:	4a0c      	ldr	r2, [pc, #48]	; (80031c4 <check_fs+0x70>)
 8003194:	f020 407f 	bic.w	r0, r0, #4278190080	; 0xff000000
 8003198:	4290      	cmp	r0, r2
 800319a:	d008      	beq.n	80031ae <check_fs+0x5a>
 800319c:	f104 0086 	add.w	r0, r4, #134	; 0x86
 80031a0:	f7ff feac 	bl	8002efc <ld_dword>
 80031a4:	4b08      	ldr	r3, [pc, #32]	; (80031c8 <check_fs+0x74>)
 80031a6:	1ac0      	subs	r0, r0, r3
 80031a8:	bf18      	it	ne
 80031aa:	2001      	movne	r0, #1
 80031ac:	0043      	lsls	r3, r0, #1
 80031ae:	4618      	mov	r0, r3
 80031b0:	bd10      	pop	{r4, pc}
 80031b2:	2304      	movs	r3, #4
 80031b4:	e7fb      	b.n	80031ae <check_fs+0x5a>
 80031b6:	2303      	movs	r3, #3
 80031b8:	e7f9      	b.n	80031ae <check_fs+0x5a>
 80031ba:	2302      	movs	r3, #2
 80031bc:	e7f7      	b.n	80031ae <check_fs+0x5a>
 80031be:	bf00      	nop
 80031c0:	009000eb 	.word	0x009000eb
 80031c4:	00544146 	.word	0x00544146
 80031c8:	33544146 	.word	0x33544146

080031cc <find_volume>:
 80031cc:	b5f0      	push	{r4, r5, r6, r7, lr}
 80031ce:	2300      	movs	r3, #0
 80031d0:	b085      	sub	sp, #20
 80031d2:	600b      	str	r3, [r1, #0]
 80031d4:	460f      	mov	r7, r1
 80031d6:	4615      	mov	r5, r2
 80031d8:	f7ff fec6 	bl	8002f68 <get_ldnumber>
 80031dc:	1e06      	subs	r6, r0, #0
 80031de:	f2c0 810c 	blt.w	80033fa <find_volume+0x22e>
 80031e2:	4b89      	ldr	r3, [pc, #548]	; (8003408 <find_volume+0x23c>)
 80031e4:	f853 4026 	ldr.w	r4, [r3, r6, lsl #2]
 80031e8:	2c00      	cmp	r4, #0
 80031ea:	f000 8108 	beq.w	80033fe <find_volume+0x232>
 80031ee:	603c      	str	r4, [r7, #0]
 80031f0:	7823      	ldrb	r3, [r4, #0]
 80031f2:	f005 05fe 	and.w	r5, r5, #254	; 0xfe
 80031f6:	b163      	cbz	r3, 8003212 <find_volume+0x46>
 80031f8:	7860      	ldrb	r0, [r4, #1]
 80031fa:	f7ff fe3b 	bl	8002e74 <disk_status>
 80031fe:	07c7      	lsls	r7, r0, #31
 8003200:	d407      	bmi.n	8003212 <find_volume+0x46>
 8003202:	b11d      	cbz	r5, 800320c <find_volume+0x40>
 8003204:	f010 0504 	ands.w	r5, r0, #4
 8003208:	d000      	beq.n	800320c <find_volume+0x40>
 800320a:	250a      	movs	r5, #10
 800320c:	4628      	mov	r0, r5
 800320e:	b005      	add	sp, #20
 8003210:	bdf0      	pop	{r4, r5, r6, r7, pc}
 8003212:	2300      	movs	r3, #0
 8003214:	b2f0      	uxtb	r0, r6
 8003216:	7023      	strb	r3, [r4, #0]
 8003218:	7060      	strb	r0, [r4, #1]
 800321a:	f7ff fe35 	bl	8002e88 <disk_initialize>
 800321e:	07c1      	lsls	r1, r0, #31
 8003220:	f100 80ef 	bmi.w	8003402 <find_volume+0x236>
 8003224:	b10d      	cbz	r5, 800322a <find_volume+0x5e>
 8003226:	0742      	lsls	r2, r0, #29
 8003228:	d4ef      	bmi.n	800320a <find_volume+0x3e>
 800322a:	2100      	movs	r1, #0
 800322c:	4620      	mov	r0, r4
 800322e:	f7ff ff91 	bl	8003154 <check_fs>
 8003232:	2802      	cmp	r0, #2
 8003234:	f040 80c8 	bne.w	80033c8 <find_volume+0x1fc>
 8003238:	466f      	mov	r7, sp
 800323a:	f504 73fd 	add.w	r3, r4, #506	; 0x1fa
 800323e:	f204 213a 	addw	r1, r4, #570	; 0x23a
 8003242:	463a      	mov	r2, r7
 8003244:	f813 0c04 	ldrb.w	r0, [r3, #-4]
 8003248:	b110      	cbz	r0, 8003250 <find_volume+0x84>
 800324a:	4618      	mov	r0, r3
 800324c:	f7ff fe56 	bl	8002efc <ld_dword>
 8003250:	3310      	adds	r3, #16
 8003252:	428b      	cmp	r3, r1
 8003254:	f842 0b04 	str.w	r0, [r2], #4
 8003258:	d1f4      	bne.n	8003244 <find_volume+0x78>
 800325a:	2500      	movs	r5, #0
 800325c:	f857 6b04 	ldr.w	r6, [r7], #4
 8003260:	2e00      	cmp	r6, #0
 8003262:	f000 80a8 	beq.w	80033b6 <find_volume+0x1ea>
 8003266:	4631      	mov	r1, r6
 8003268:	4620      	mov	r0, r4
 800326a:	f7ff ff73 	bl	8003154 <check_fs>
 800326e:	2801      	cmp	r0, #1
 8003270:	f200 80a2 	bhi.w	80033b8 <find_volume+0x1ec>
 8003274:	f8b4 303f 	ldrh.w	r3, [r4, #63]	; 0x3f
 8003278:	f5b3 7f00 	cmp.w	r3, #512	; 0x200
 800327c:	f040 80a8 	bne.w	80033d0 <find_volume+0x204>
 8003280:	f8b4 104a 	ldrh.w	r1, [r4, #74]	; 0x4a
 8003284:	b921      	cbnz	r1, 8003290 <find_volume+0xc4>
 8003286:	f104 0058 	add.w	r0, r4, #88	; 0x58
 800328a:	f7ff fe37 	bl	8002efc <ld_dword>
 800328e:	4601      	mov	r1, r0
 8003290:	f894 2044 	ldrb.w	r2, [r4, #68]	; 0x44
 8003294:	61e1      	str	r1, [r4, #28]
 8003296:	1e53      	subs	r3, r2, #1
 8003298:	2b01      	cmp	r3, #1
 800329a:	70a2      	strb	r2, [r4, #2]
 800329c:	f200 8098 	bhi.w	80033d0 <find_volume+0x204>
 80032a0:	f894 5041 	ldrb.w	r5, [r4, #65]	; 0x41
 80032a4:	8165      	strh	r5, [r4, #10]
 80032a6:	2d00      	cmp	r5, #0
 80032a8:	f000 8092 	beq.w	80033d0 <find_volume+0x204>
 80032ac:	1e6b      	subs	r3, r5, #1
 80032ae:	422b      	tst	r3, r5
 80032b0:	f040 808e 	bne.w	80033d0 <find_volume+0x204>
 80032b4:	f8b4 7045 	ldrh.w	r7, [r4, #69]	; 0x45
 80032b8:	8127      	strh	r7, [r4, #8]
 80032ba:	073b      	lsls	r3, r7, #28
 80032bc:	f040 8088 	bne.w	80033d0 <find_volume+0x204>
 80032c0:	f8b4 0047 	ldrh.w	r0, [r4, #71]	; 0x47
 80032c4:	b918      	cbnz	r0, 80032ce <find_volume+0x102>
 80032c6:	f104 0054 	add.w	r0, r4, #84	; 0x54
 80032ca:	f7ff fe17 	bl	8002efc <ld_dword>
 80032ce:	f8b4 3042 	ldrh.w	r3, [r4, #66]	; 0x42
 80032d2:	2b00      	cmp	r3, #0
 80032d4:	d07c      	beq.n	80033d0 <find_volume+0x204>
 80032d6:	fb01 fe02 	mul.w	lr, r1, r2
 80032da:	eb03 1c17 	add.w	ip, r3, r7, lsr #4
 80032de:	44f4      	add	ip, lr
 80032e0:	4560      	cmp	r0, ip
 80032e2:	d375      	bcc.n	80033d0 <find_volume+0x204>
 80032e4:	eba0 000c 	sub.w	r0, r0, ip
 80032e8:	42a8      	cmp	r0, r5
 80032ea:	fbb0 f2f5 	udiv	r2, r0, r5
 80032ee:	d36f      	bcc.n	80033d0 <find_volume+0x204>
 80032f0:	f64f 70f5 	movw	r0, #65525	; 0xfff5
 80032f4:	4282      	cmp	r2, r0
 80032f6:	d86f      	bhi.n	80033d8 <find_volume+0x20c>
 80032f8:	f640 75f5 	movw	r5, #4085	; 0xff5
 80032fc:	42aa      	cmp	r2, r5
 80032fe:	bf8c      	ite	hi
 8003300:	2502      	movhi	r5, #2
 8003302:	2501      	movls	r5, #1
 8003304:	3202      	adds	r2, #2
 8003306:	4433      	add	r3, r6
 8003308:	eb0c 0006 	add.w	r0, ip, r6
 800330c:	2d03      	cmp	r5, #3
 800330e:	61a2      	str	r2, [r4, #24]
 8003310:	6226      	str	r6, [r4, #32]
 8003312:	6263      	str	r3, [r4, #36]	; 0x24
 8003314:	62e0      	str	r0, [r4, #44]	; 0x2c
 8003316:	d161      	bne.n	80033dc <find_volume+0x210>
 8003318:	f8b4 305e 	ldrh.w	r3, [r4, #94]	; 0x5e
 800331c:	433b      	orrs	r3, r7
 800331e:	d157      	bne.n	80033d0 <find_volume+0x204>
 8003320:	f104 0060 	add.w	r0, r4, #96	; 0x60
 8003324:	f7ff fdea 	bl	8002efc <ld_dword>
 8003328:	0092      	lsls	r2, r2, #2
 800332a:	f202 12ff 	addw	r2, r2, #511	; 0x1ff
 800332e:	ebb1 2f52 	cmp.w	r1, r2, lsr #9
 8003332:	62a0      	str	r0, [r4, #40]	; 0x28
 8003334:	d34c      	bcc.n	80033d0 <find_volume+0x204>
 8003336:	f04f 33ff 	mov.w	r3, #4294967295
 800333a:	e9c4 3304 	strd	r3, r3, [r4, #16]
 800333e:	2d03      	cmp	r5, #3
 8003340:	f04f 0380 	mov.w	r3, #128	; 0x80
 8003344:	7123      	strb	r3, [r4, #4]
 8003346:	d12b      	bne.n	80033a0 <find_volume+0x1d4>
 8003348:	f8b4 3064 	ldrh.w	r3, [r4, #100]	; 0x64
 800334c:	2b01      	cmp	r3, #1
 800334e:	d127      	bne.n	80033a0 <find_volume+0x1d4>
 8003350:	1c71      	adds	r1, r6, #1
 8003352:	4620      	mov	r0, r4
 8003354:	f7ff fee4 	bl	8003120 <move_window>
 8003358:	bb10      	cbnz	r0, 80033a0 <find_volume+0x1d4>
 800335a:	f8b4 2232 	ldrh.w	r2, [r4, #562]	; 0x232
 800335e:	7120      	strb	r0, [r4, #4]
 8003360:	f64a 2355 	movw	r3, #43605	; 0xaa55
 8003364:	429a      	cmp	r2, r3
 8003366:	d11b      	bne.n	80033a0 <find_volume+0x1d4>
 8003368:	f104 0034 	add.w	r0, r4, #52	; 0x34
 800336c:	f7ff fdc6 	bl	8002efc <ld_dword>
 8003370:	4b26      	ldr	r3, [pc, #152]	; (800340c <find_volume+0x240>)
 8003372:	4298      	cmp	r0, r3
 8003374:	d114      	bne.n	80033a0 <find_volume+0x1d4>
 8003376:	f504 7006 	add.w	r0, r4, #536	; 0x218
 800337a:	f7ff fdbf 	bl	8002efc <ld_dword>
 800337e:	f103 53ff 	add.w	r3, r3, #534773760	; 0x1fe00000
 8003382:	f503 5300 	add.w	r3, r3, #8192	; 0x2000
 8003386:	3320      	adds	r3, #32
 8003388:	4298      	cmp	r0, r3
 800338a:	d109      	bne.n	80033a0 <find_volume+0x1d4>
 800338c:	f504 7007 	add.w	r0, r4, #540	; 0x21c
 8003390:	f7ff fdb4 	bl	8002efc <ld_dword>
 8003394:	6160      	str	r0, [r4, #20]
 8003396:	f504 7008 	add.w	r0, r4, #544	; 0x220
 800339a:	f7ff fdaf 	bl	8002efc <ld_dword>
 800339e:	6120      	str	r0, [r4, #16]
 80033a0:	4a1b      	ldr	r2, [pc, #108]	; (8003410 <find_volume+0x244>)
 80033a2:	7025      	strb	r5, [r4, #0]
 80033a4:	8813      	ldrh	r3, [r2, #0]
 80033a6:	3301      	adds	r3, #1
 80033a8:	b29b      	uxth	r3, r3
 80033aa:	8013      	strh	r3, [r2, #0]
 80033ac:	80e3      	strh	r3, [r4, #6]
 80033ae:	4b19      	ldr	r3, [pc, #100]	; (8003414 <find_volume+0x248>)
 80033b0:	60e3      	str	r3, [r4, #12]
 80033b2:	2500      	movs	r5, #0
 80033b4:	e72a      	b.n	800320c <find_volume+0x40>
 80033b6:	2003      	movs	r0, #3
 80033b8:	3501      	adds	r5, #1
 80033ba:	2d04      	cmp	r5, #4
 80033bc:	f47f af4e 	bne.w	800325c <find_volume+0x90>
 80033c0:	2804      	cmp	r0, #4
 80033c2:	d105      	bne.n	80033d0 <find_volume+0x204>
 80033c4:	2501      	movs	r5, #1
 80033c6:	e721      	b.n	800320c <find_volume+0x40>
 80033c8:	2804      	cmp	r0, #4
 80033ca:	d0fb      	beq.n	80033c4 <find_volume+0x1f8>
 80033cc:	2801      	cmp	r0, #1
 80033ce:	d901      	bls.n	80033d4 <find_volume+0x208>
 80033d0:	250d      	movs	r5, #13
 80033d2:	e71b      	b.n	800320c <find_volume+0x40>
 80033d4:	2600      	movs	r6, #0
 80033d6:	e74d      	b.n	8003274 <find_volume+0xa8>
 80033d8:	2503      	movs	r5, #3
 80033da:	e793      	b.n	8003304 <find_volume+0x138>
 80033dc:	2f00      	cmp	r7, #0
 80033de:	d0f7      	beq.n	80033d0 <find_volume+0x204>
 80033e0:	2d02      	cmp	r5, #2
 80033e2:	eb03 000e 	add.w	r0, r3, lr
 80033e6:	ea4f 0342 	mov.w	r3, r2, lsl #1
 80033ea:	bf1b      	ittet	ne
 80033ec:	189b      	addne	r3, r3, r2
 80033ee:	f002 0201 	andne.w	r2, r2, #1
 80033f2:	461a      	moveq	r2, r3
 80033f4:	eb02 0253 	addne.w	r2, r2, r3, lsr #1
 80033f8:	e797      	b.n	800332a <find_volume+0x15e>
 80033fa:	250b      	movs	r5, #11
 80033fc:	e706      	b.n	800320c <find_volume+0x40>
 80033fe:	250c      	movs	r5, #12
 8003400:	e704      	b.n	800320c <find_volume+0x40>
 8003402:	2503      	movs	r5, #3
 8003404:	e702      	b.n	800320c <find_volume+0x40>
 8003406:	bf00      	nop
 8003408:	20000600 	.word	0x20000600
 800340c:	41615252 	.word	0x41615252
 8003410:	20000604 	.word	0x20000604
 8003414:	20000606 	.word	0x20000606

08003418 <put_fat>:
 8003418:	2901      	cmp	r1, #1
 800341a:	e92d 47f0 	stmdb	sp!, {r4, r5, r6, r7, r8, r9, sl, lr}
 800341e:	4606      	mov	r6, r0
 8003420:	460c      	mov	r4, r1
 8003422:	4617      	mov	r7, r2
 8003424:	d973      	bls.n	800350e <put_fat+0xf6>
 8003426:	6983      	ldr	r3, [r0, #24]
 8003428:	428b      	cmp	r3, r1
 800342a:	d970      	bls.n	800350e <put_fat+0xf6>
 800342c:	7803      	ldrb	r3, [r0, #0]
 800342e:	2b02      	cmp	r3, #2
 8003430:	d03f      	beq.n	80034b2 <put_fat+0x9a>
 8003432:	2b03      	cmp	r3, #3
 8003434:	d050      	beq.n	80034d8 <put_fat+0xc0>
 8003436:	2b01      	cmp	r3, #1
 8003438:	d169      	bne.n	800350e <put_fat+0xf6>
 800343a:	eb01 0851 	add.w	r8, r1, r1, lsr #1
 800343e:	6a41      	ldr	r1, [r0, #36]	; 0x24
 8003440:	eb01 2158 	add.w	r1, r1, r8, lsr #9
 8003444:	f7ff fe6c 	bl	8003120 <move_window>
 8003448:	4605      	mov	r5, r0
 800344a:	bb38      	cbnz	r0, 800349c <put_fat+0x84>
 800344c:	f106 0934 	add.w	r9, r6, #52	; 0x34
 8003450:	f108 0a01 	add.w	sl, r8, #1
 8003454:	f3c8 0808 	ubfx	r8, r8, #0, #9
 8003458:	f014 0401 	ands.w	r4, r4, #1
 800345c:	bf1f      	itttt	ne
 800345e:	f819 2008 	ldrbne.w	r2, [r9, r8]
 8003462:	013b      	lslne	r3, r7, #4
 8003464:	f003 03f0 	andne.w	r3, r3, #240	; 0xf0
 8003468:	f002 020f 	andne.w	r2, r2, #15
 800346c:	bf14      	ite	ne
 800346e:	4313      	orrne	r3, r2
 8003470:	b2fb      	uxtbeq	r3, r7
 8003472:	f809 3008 	strb.w	r3, [r9, r8]
 8003476:	6a71      	ldr	r1, [r6, #36]	; 0x24
 8003478:	2301      	movs	r3, #1
 800347a:	70f3      	strb	r3, [r6, #3]
 800347c:	eb01 215a 	add.w	r1, r1, sl, lsr #9
 8003480:	4630      	mov	r0, r6
 8003482:	f7ff fe4d 	bl	8003120 <move_window>
 8003486:	4605      	mov	r5, r0
 8003488:	b940      	cbnz	r0, 800349c <put_fat+0x84>
 800348a:	f3ca 0a08 	ubfx	sl, sl, #0, #9
 800348e:	b144      	cbz	r4, 80034a2 <put_fat+0x8a>
 8003490:	f3c7 1707 	ubfx	r7, r7, #4, #8
 8003494:	f809 700a 	strb.w	r7, [r9, sl]
 8003498:	2301      	movs	r3, #1
 800349a:	70f3      	strb	r3, [r6, #3]
 800349c:	4628      	mov	r0, r5
 800349e:	e8bd 87f0 	ldmia.w	sp!, {r4, r5, r6, r7, r8, r9, sl, pc}
 80034a2:	f819 300a 	ldrb.w	r3, [r9, sl]
 80034a6:	f3c7 2703 	ubfx	r7, r7, #8, #4
 80034aa:	f023 030f 	bic.w	r3, r3, #15
 80034ae:	431f      	orrs	r7, r3
 80034b0:	e7f0      	b.n	8003494 <put_fat+0x7c>
 80034b2:	6a41      	ldr	r1, [r0, #36]	; 0x24
 80034b4:	eb01 2114 	add.w	r1, r1, r4, lsr #8
 80034b8:	f7ff fe32 	bl	8003120 <move_window>
 80034bc:	4605      	mov	r5, r0
 80034be:	2800      	cmp	r0, #0
 80034c0:	d1ec      	bne.n	800349c <put_fat+0x84>
 80034c2:	0064      	lsls	r4, r4, #1
 80034c4:	f106 0334 	add.w	r3, r6, #52	; 0x34
 80034c8:	f404 74ff 	and.w	r4, r4, #510	; 0x1fe
 80034cc:	191a      	adds	r2, r3, r4
 80034ce:	551f      	strb	r7, [r3, r4]
 80034d0:	f3c7 2707 	ubfx	r7, r7, #8, #8
 80034d4:	7057      	strb	r7, [r2, #1]
 80034d6:	e7df      	b.n	8003498 <put_fat+0x80>
 80034d8:	6a41      	ldr	r1, [r0, #36]	; 0x24
 80034da:	eb01 11d4 	add.w	r1, r1, r4, lsr #7
 80034de:	f7ff fe1f 	bl	8003120 <move_window>
 80034e2:	4605      	mov	r5, r0
 80034e4:	2800      	cmp	r0, #0
 80034e6:	d1d9      	bne.n	800349c <put_fat+0x84>
 80034e8:	00a4      	lsls	r4, r4, #2
 80034ea:	f106 0334 	add.w	r3, r6, #52	; 0x34
 80034ee:	f404 74fe 	and.w	r4, r4, #508	; 0x1fc
 80034f2:	4423      	add	r3, r4
 80034f4:	4618      	mov	r0, r3
 80034f6:	f7ff fd01 	bl	8002efc <ld_dword>
 80034fa:	f027 4770 	bic.w	r7, r7, #4026531840	; 0xf0000000
 80034fe:	f000 4070 	and.w	r0, r0, #4026531840	; 0xf0000000
 8003502:	ea47 0100 	orr.w	r1, r7, r0
 8003506:	4618      	mov	r0, r3
 8003508:	f7ff fcfa 	bl	8002f00 <st_dword>
 800350c:	e7c4      	b.n	8003498 <put_fat+0x80>
 800350e:	2502      	movs	r5, #2
 8003510:	e7c4      	b.n	800349c <put_fat+0x84>

08003512 <sync_fs>:
 8003512:	b5f8      	push	{r3, r4, r5, r6, r7, lr}
 8003514:	4604      	mov	r4, r0
 8003516:	f7ff fdfd 	bl	8003114 <sync_window>
 800351a:	4605      	mov	r5, r0
 800351c:	2800      	cmp	r0, #0
 800351e:	d142      	bne.n	80035a6 <sync_fs+0x94>
 8003520:	7823      	ldrb	r3, [r4, #0]
 8003522:	2b03      	cmp	r3, #3
 8003524:	d137      	bne.n	8003596 <sync_fs+0x84>
 8003526:	7927      	ldrb	r7, [r4, #4]
 8003528:	2f01      	cmp	r7, #1
 800352a:	d134      	bne.n	8003596 <sync_fs+0x84>
 800352c:	f104 0634 	add.w	r6, r4, #52	; 0x34
 8003530:	4601      	mov	r1, r0
 8003532:	f44f 7200 	mov.w	r2, #512	; 0x200
 8003536:	4630      	mov	r0, r6
 8003538:	2355      	movs	r3, #85	; 0x55
 800353a:	f7ff fce9 	bl	8002f10 <mem_set>
 800353e:	f884 3232 	strb.w	r3, [r4, #562]	; 0x232
 8003542:	23aa      	movs	r3, #170	; 0xaa
 8003544:	f884 3233 	strb.w	r3, [r4, #563]	; 0x233
 8003548:	2352      	movs	r3, #82	; 0x52
 800354a:	2241      	movs	r2, #65	; 0x41
 800354c:	2172      	movs	r1, #114	; 0x72
 800354e:	f884 3034 	strb.w	r3, [r4, #52]	; 0x34
 8003552:	f884 3035 	strb.w	r3, [r4, #53]	; 0x35
 8003556:	2361      	movs	r3, #97	; 0x61
 8003558:	f884 3036 	strb.w	r3, [r4, #54]	; 0x36
 800355c:	f884 321b 	strb.w	r3, [r4, #539]	; 0x21b
 8003560:	f884 2037 	strb.w	r2, [r4, #55]	; 0x37
 8003564:	f884 1218 	strb.w	r1, [r4, #536]	; 0x218
 8003568:	f884 1219 	strb.w	r1, [r4, #537]	; 0x219
 800356c:	f884 221a 	strb.w	r2, [r4, #538]	; 0x21a
 8003570:	6961      	ldr	r1, [r4, #20]
 8003572:	f504 7007 	add.w	r0, r4, #540	; 0x21c
 8003576:	f7ff fcc3 	bl	8002f00 <st_dword>
 800357a:	6921      	ldr	r1, [r4, #16]
 800357c:	f504 7008 	add.w	r0, r4, #544	; 0x220
 8003580:	f7ff fcbe 	bl	8002f00 <st_dword>
 8003584:	6a22      	ldr	r2, [r4, #32]
 8003586:	7860      	ldrb	r0, [r4, #1]
 8003588:	3201      	adds	r2, #1
 800358a:	6322      	str	r2, [r4, #48]	; 0x30
 800358c:	463b      	mov	r3, r7
 800358e:	4631      	mov	r1, r6
 8003590:	f7ff fc98 	bl	8002ec4 <disk_write>
 8003594:	7125      	strb	r5, [r4, #4]
 8003596:	2200      	movs	r2, #0
 8003598:	7860      	ldrb	r0, [r4, #1]
 800359a:	4611      	mov	r1, r2
 800359c:	f7ff fca0 	bl	8002ee0 <disk_ioctl>
 80035a0:	3800      	subs	r0, #0
 80035a2:	bf18      	it	ne
 80035a4:	2001      	movne	r0, #1
 80035a6:	bdf8      	pop	{r3, r4, r5, r6, r7, pc}

080035a8 <ld_clust.isra.0>:
 80035a8:	2803      	cmp	r0, #3
 80035aa:	8b4b      	ldrh	r3, [r1, #26]
 80035ac:	bf04      	itt	eq
 80035ae:	8a8a      	ldrheq	r2, [r1, #20]
 80035b0:	ea43 4302 	orreq.w	r3, r3, r2, lsl #16
 80035b4:	4618      	mov	r0, r3
 80035b6:	4770      	bx	lr

080035b8 <get_fat.isra.0>:
 80035b8:	2901      	cmp	r1, #1
 80035ba:	b5f8      	push	{r3, r4, r5, r6, r7, lr}
 80035bc:	4606      	mov	r6, r0
 80035be:	460c      	mov	r4, r1
 80035c0:	d94e      	bls.n	8003660 <get_fat.isra.0+0xa8>
 80035c2:	6983      	ldr	r3, [r0, #24]
 80035c4:	4299      	cmp	r1, r3
 80035c6:	d24b      	bcs.n	8003660 <get_fat.isra.0+0xa8>
 80035c8:	7803      	ldrb	r3, [r0, #0]
 80035ca:	2b02      	cmp	r3, #2
 80035cc:	d029      	beq.n	8003622 <get_fat.isra.0+0x6a>
 80035ce:	2b03      	cmp	r3, #3
 80035d0:	d034      	beq.n	800363c <get_fat.isra.0+0x84>
 80035d2:	2b01      	cmp	r3, #1
 80035d4:	d144      	bne.n	8003660 <get_fat.isra.0+0xa8>
 80035d6:	eb01 0551 	add.w	r5, r1, r1, lsr #1
 80035da:	6a41      	ldr	r1, [r0, #36]	; 0x24
 80035dc:	eb01 2155 	add.w	r1, r1, r5, lsr #9
 80035e0:	f7ff fd9e 	bl	8003120 <move_window>
 80035e4:	b110      	cbz	r0, 80035ec <get_fat.isra.0+0x34>
 80035e6:	f04f 30ff 	mov.w	r0, #4294967295
 80035ea:	bdf8      	pop	{r3, r4, r5, r6, r7, pc}
 80035ec:	1c6f      	adds	r7, r5, #1
 80035ee:	6a71      	ldr	r1, [r6, #36]	; 0x24
 80035f0:	f3c5 0508 	ubfx	r5, r5, #0, #9
 80035f4:	4435      	add	r5, r6
 80035f6:	eb01 2157 	add.w	r1, r1, r7, lsr #9
 80035fa:	4630      	mov	r0, r6
 80035fc:	f895 5034 	ldrb.w	r5, [r5, #52]	; 0x34
 8003600:	f7ff fd8e 	bl	8003120 <move_window>
 8003604:	2800      	cmp	r0, #0
 8003606:	d1ee      	bne.n	80035e6 <get_fat.isra.0+0x2e>
 8003608:	f3c7 0708 	ubfx	r7, r7, #0, #9
 800360c:	4437      	add	r7, r6
 800360e:	f897 3034 	ldrb.w	r3, [r7, #52]	; 0x34
 8003612:	ea45 2003 	orr.w	r0, r5, r3, lsl #8
 8003616:	07e3      	lsls	r3, r4, #31
 8003618:	bf4c      	ite	mi
 800361a:	0900      	lsrmi	r0, r0, #4
 800361c:	f3c0 000b 	ubfxpl	r0, r0, #0, #12
 8003620:	e7e3      	b.n	80035ea <get_fat.isra.0+0x32>
 8003622:	6a41      	ldr	r1, [r0, #36]	; 0x24
 8003624:	eb01 2114 	add.w	r1, r1, r4, lsr #8
 8003628:	f7ff fd7a 	bl	8003120 <move_window>
 800362c:	2800      	cmp	r0, #0
 800362e:	d1da      	bne.n	80035e6 <get_fat.isra.0+0x2e>
 8003630:	0064      	lsls	r4, r4, #1
 8003632:	f404 74ff 	and.w	r4, r4, #510	; 0x1fe
 8003636:	4434      	add	r4, r6
 8003638:	8ea0      	ldrh	r0, [r4, #52]	; 0x34
 800363a:	e7d6      	b.n	80035ea <get_fat.isra.0+0x32>
 800363c:	6a41      	ldr	r1, [r0, #36]	; 0x24
 800363e:	eb01 11d4 	add.w	r1, r1, r4, lsr #7
 8003642:	f7ff fd6d 	bl	8003120 <move_window>
 8003646:	2800      	cmp	r0, #0
 8003648:	d1cd      	bne.n	80035e6 <get_fat.isra.0+0x2e>
 800364a:	00a4      	lsls	r4, r4, #2
 800364c:	f106 0034 	add.w	r0, r6, #52	; 0x34
 8003650:	f404 74fe 	and.w	r4, r4, #508	; 0x1fc
 8003654:	4420      	add	r0, r4
 8003656:	f7ff fc51 	bl	8002efc <ld_dword>
 800365a:	f020 4070 	bic.w	r0, r0, #4026531840	; 0xf0000000
 800365e:	e7c4      	b.n	80035ea <get_fat.isra.0+0x32>
 8003660:	2001      	movs	r0, #1
 8003662:	e7c2      	b.n	80035ea <get_fat.isra.0+0x32>

08003664 <remove_chain>:
 8003664:	b573      	push	{r0, r1, r4, r5, r6, lr}
 8003666:	460c      	mov	r4, r1
 8003668:	2c01      	cmp	r4, #1
 800366a:	6805      	ldr	r5, [r0, #0]
 800366c:	4606      	mov	r6, r0
 800366e:	4611      	mov	r1, r2
 8003670:	d92c      	bls.n	80036cc <remove_chain+0x68>
 8003672:	69ab      	ldr	r3, [r5, #24]
 8003674:	42a3      	cmp	r3, r4
 8003676:	d929      	bls.n	80036cc <remove_chain+0x68>
 8003678:	b12a      	cbz	r2, 8003686 <remove_chain+0x22>
 800367a:	f04f 32ff 	mov.w	r2, #4294967295
 800367e:	4628      	mov	r0, r5
 8003680:	f7ff feca 	bl	8003418 <put_fat>
 8003684:	b940      	cbnz	r0, 8003698 <remove_chain+0x34>
 8003686:	4621      	mov	r1, r4
 8003688:	6830      	ldr	r0, [r6, #0]
 800368a:	9401      	str	r4, [sp, #4]
 800368c:	f7ff ff94 	bl	80035b8 <get_fat.isra.0>
 8003690:	9901      	ldr	r1, [sp, #4]
 8003692:	4604      	mov	r4, r0
 8003694:	b910      	cbnz	r0, 800369c <remove_chain+0x38>
 8003696:	2000      	movs	r0, #0
 8003698:	b002      	add	sp, #8
 800369a:	bd70      	pop	{r4, r5, r6, pc}
 800369c:	2801      	cmp	r0, #1
 800369e:	d015      	beq.n	80036cc <remove_chain+0x68>
 80036a0:	1c43      	adds	r3, r0, #1
 80036a2:	d015      	beq.n	80036d0 <remove_chain+0x6c>
 80036a4:	2200      	movs	r2, #0
 80036a6:	4628      	mov	r0, r5
 80036a8:	f7ff feb6 	bl	8003418 <put_fat>
 80036ac:	2800      	cmp	r0, #0
 80036ae:	d1f3      	bne.n	8003698 <remove_chain+0x34>
 80036b0:	e9d5 3205 	ldrd	r3, r2, [r5, #20]
 80036b4:	1e91      	subs	r1, r2, #2
 80036b6:	428b      	cmp	r3, r1
 80036b8:	d205      	bcs.n	80036c6 <remove_chain+0x62>
 80036ba:	3301      	adds	r3, #1
 80036bc:	616b      	str	r3, [r5, #20]
 80036be:	792b      	ldrb	r3, [r5, #4]
 80036c0:	f043 0301 	orr.w	r3, r3, #1
 80036c4:	712b      	strb	r3, [r5, #4]
 80036c6:	42a2      	cmp	r2, r4
 80036c8:	d8dd      	bhi.n	8003686 <remove_chain+0x22>
 80036ca:	e7e4      	b.n	8003696 <remove_chain+0x32>
 80036cc:	2002      	movs	r0, #2
 80036ce:	e7e3      	b.n	8003698 <remove_chain+0x34>
 80036d0:	2001      	movs	r0, #1
 80036d2:	e7e1      	b.n	8003698 <remove_chain+0x34>

080036d4 <create_chain>:
 80036d4:	e92d 41f0 	stmdb	sp!, {r4, r5, r6, r7, r8, lr}
 80036d8:	6805      	ldr	r5, [r0, #0]
 80036da:	4680      	mov	r8, r0
 80036dc:	460f      	mov	r7, r1
 80036de:	b971      	cbnz	r1, 80036fe <create_chain+0x2a>
 80036e0:	692e      	ldr	r6, [r5, #16]
 80036e2:	b1ee      	cbz	r6, 8003720 <create_chain+0x4c>
 80036e4:	69ab      	ldr	r3, [r5, #24]
 80036e6:	42b3      	cmp	r3, r6
 80036e8:	bf98      	it	ls
 80036ea:	2601      	movls	r6, #1
 80036ec:	4634      	mov	r4, r6
 80036ee:	69ab      	ldr	r3, [r5, #24]
 80036f0:	3401      	adds	r4, #1
 80036f2:	42a3      	cmp	r3, r4
 80036f4:	d817      	bhi.n	8003726 <create_chain+0x52>
 80036f6:	2e01      	cmp	r6, #1
 80036f8:	d114      	bne.n	8003724 <create_chain+0x50>
 80036fa:	2400      	movs	r4, #0
 80036fc:	e006      	b.n	800370c <create_chain+0x38>
 80036fe:	4628      	mov	r0, r5
 8003700:	f7ff ff5a 	bl	80035b8 <get_fat.isra.0>
 8003704:	2801      	cmp	r0, #1
 8003706:	4604      	mov	r4, r0
 8003708:	d803      	bhi.n	8003712 <create_chain+0x3e>
 800370a:	2401      	movs	r4, #1
 800370c:	4620      	mov	r0, r4
 800370e:	e8bd 81f0 	ldmia.w	sp!, {r4, r5, r6, r7, r8, pc}
 8003712:	1c43      	adds	r3, r0, #1
 8003714:	d030      	beq.n	8003778 <create_chain+0xa4>
 8003716:	69ab      	ldr	r3, [r5, #24]
 8003718:	4283      	cmp	r3, r0
 800371a:	d8f7      	bhi.n	800370c <create_chain+0x38>
 800371c:	463e      	mov	r6, r7
 800371e:	e7e5      	b.n	80036ec <create_chain+0x18>
 8003720:	2601      	movs	r6, #1
 8003722:	e7e3      	b.n	80036ec <create_chain+0x18>
 8003724:	2402      	movs	r4, #2
 8003726:	f8d8 0000 	ldr.w	r0, [r8]
 800372a:	4621      	mov	r1, r4
 800372c:	f7ff ff44 	bl	80035b8 <get_fat.isra.0>
 8003730:	b130      	cbz	r0, 8003740 <create_chain+0x6c>
 8003732:	2801      	cmp	r0, #1
 8003734:	d0e9      	beq.n	800370a <create_chain+0x36>
 8003736:	3001      	adds	r0, #1
 8003738:	d01e      	beq.n	8003778 <create_chain+0xa4>
 800373a:	42b4      	cmp	r4, r6
 800373c:	d1d7      	bne.n	80036ee <create_chain+0x1a>
 800373e:	e7dc      	b.n	80036fa <create_chain+0x26>
 8003740:	f04f 32ff 	mov.w	r2, #4294967295
 8003744:	4621      	mov	r1, r4
 8003746:	4628      	mov	r0, r5
 8003748:	f7ff fe66 	bl	8003418 <put_fat>
 800374c:	b990      	cbnz	r0, 8003774 <create_chain+0xa0>
 800374e:	b957      	cbnz	r7, 8003766 <create_chain+0x92>
 8003750:	e9d5 3205 	ldrd	r3, r2, [r5, #20]
 8003754:	3a02      	subs	r2, #2
 8003756:	4293      	cmp	r3, r2
 8003758:	612c      	str	r4, [r5, #16]
 800375a:	d910      	bls.n	800377e <create_chain+0xaa>
 800375c:	792b      	ldrb	r3, [r5, #4]
 800375e:	f043 0301 	orr.w	r3, r3, #1
 8003762:	712b      	strb	r3, [r5, #4]
 8003764:	e7d2      	b.n	800370c <create_chain+0x38>
 8003766:	4622      	mov	r2, r4
 8003768:	4639      	mov	r1, r7
 800376a:	4628      	mov	r0, r5
 800376c:	f7ff fe54 	bl	8003418 <put_fat>
 8003770:	2800      	cmp	r0, #0
 8003772:	d0ed      	beq.n	8003750 <create_chain+0x7c>
 8003774:	2801      	cmp	r0, #1
 8003776:	d1c8      	bne.n	800370a <create_chain+0x36>
 8003778:	f04f 34ff 	mov.w	r4, #4294967295
 800377c:	e7c6      	b.n	800370c <create_chain+0x38>
 800377e:	3b01      	subs	r3, #1
 8003780:	616b      	str	r3, [r5, #20]
 8003782:	e7eb      	b.n	800375c <create_chain+0x88>

08003784 <dir_sdi>:
 8003784:	f5b1 1f00 	cmp.w	r1, #2097152	; 0x200000
 8003788:	b5f8      	push	{r3, r4, r5, r6, r7, lr}
 800378a:	6805      	ldr	r5, [r0, #0]
 800378c:	4606      	mov	r6, r0
 800378e:	460c      	mov	r4, r1
 8003790:	d301      	bcc.n	8003796 <dir_sdi+0x12>
 8003792:	2002      	movs	r0, #2
 8003794:	bdf8      	pop	{r3, r4, r5, r6, r7, pc}
 8003796:	06ca      	lsls	r2, r1, #27
 8003798:	d1fb      	bne.n	8003792 <dir_sdi+0xe>
 800379a:	6882      	ldr	r2, [r0, #8]
 800379c:	6101      	str	r1, [r0, #16]
 800379e:	b9ba      	cbnz	r2, 80037d0 <dir_sdi+0x4c>
 80037a0:	782b      	ldrb	r3, [r5, #0]
 80037a2:	2b02      	cmp	r3, #2
 80037a4:	d901      	bls.n	80037aa <dir_sdi+0x26>
 80037a6:	6aab      	ldr	r3, [r5, #40]	; 0x28
 80037a8:	b99b      	cbnz	r3, 80037d2 <dir_sdi+0x4e>
 80037aa:	892b      	ldrh	r3, [r5, #8]
 80037ac:	ebb3 1f54 	cmp.w	r3, r4, lsr #5
 80037b0:	d9ef      	bls.n	8003792 <dir_sdi+0xe>
 80037b2:	6aa8      	ldr	r0, [r5, #40]	; 0x28
 80037b4:	e9c6 2005 	strd	r2, r0, [r6, #20]
 80037b8:	2800      	cmp	r0, #0
 80037ba:	d0ea      	beq.n	8003792 <dir_sdi+0xe>
 80037bc:	eb00 2054 	add.w	r0, r0, r4, lsr #9
 80037c0:	3534      	adds	r5, #52	; 0x34
 80037c2:	f3c4 0408 	ubfx	r4, r4, #0, #9
 80037c6:	4425      	add	r5, r4
 80037c8:	61b0      	str	r0, [r6, #24]
 80037ca:	61f5      	str	r5, [r6, #28]
 80037cc:	2000      	movs	r0, #0
 80037ce:	e7e1      	b.n	8003794 <dir_sdi+0x10>
 80037d0:	4613      	mov	r3, r2
 80037d2:	896f      	ldrh	r7, [r5, #10]
 80037d4:	461a      	mov	r2, r3
 80037d6:	027f      	lsls	r7, r7, #9
 80037d8:	42bc      	cmp	r4, r7
 80037da:	4611      	mov	r1, r2
 80037dc:	d203      	bcs.n	80037e6 <dir_sdi+0x62>
 80037de:	4628      	mov	r0, r5
 80037e0:	f7ff fb9c 	bl	8002f1c <clust2sect>
 80037e4:	e7e6      	b.n	80037b4 <dir_sdi+0x30>
 80037e6:	6830      	ldr	r0, [r6, #0]
 80037e8:	f7ff fee6 	bl	80035b8 <get_fat.isra.0>
 80037ec:	1c43      	adds	r3, r0, #1
 80037ee:	4602      	mov	r2, r0
 80037f0:	d006      	beq.n	8003800 <dir_sdi+0x7c>
 80037f2:	2801      	cmp	r0, #1
 80037f4:	d9cd      	bls.n	8003792 <dir_sdi+0xe>
 80037f6:	69ab      	ldr	r3, [r5, #24]
 80037f8:	4283      	cmp	r3, r0
 80037fa:	d9ca      	bls.n	8003792 <dir_sdi+0xe>
 80037fc:	1be4      	subs	r4, r4, r7
 80037fe:	e7eb      	b.n	80037d8 <dir_sdi+0x54>
 8003800:	2001      	movs	r0, #1
 8003802:	e7c7      	b.n	8003794 <dir_sdi+0x10>

08003804 <dir_next>:
 8003804:	6903      	ldr	r3, [r0, #16]
 8003806:	e92d 47f0 	stmdb	sp!, {r4, r5, r6, r7, r8, r9, sl, lr}
 800380a:	f103 0820 	add.w	r8, r3, #32
 800380e:	6983      	ldr	r3, [r0, #24]
 8003810:	4605      	mov	r5, r0
 8003812:	468a      	mov	sl, r1
 8003814:	b18b      	cbz	r3, 800383a <dir_next+0x36>
 8003816:	f5b8 1f00 	cmp.w	r8, #2097152	; 0x200000
 800381a:	d20e      	bcs.n	800383a <dir_next+0x36>
 800381c:	f3c8 0708 	ubfx	r7, r8, #0, #9
 8003820:	6804      	ldr	r4, [r0, #0]
 8003822:	2f00      	cmp	r7, #0
 8003824:	d14f      	bne.n	80038c6 <dir_next+0xc2>
 8003826:	6941      	ldr	r1, [r0, #20]
 8003828:	3301      	adds	r3, #1
 800382a:	6183      	str	r3, [r0, #24]
 800382c:	b939      	cbnz	r1, 800383e <dir_next+0x3a>
 800382e:	8923      	ldrh	r3, [r4, #8]
 8003830:	ebb3 1f58 	cmp.w	r3, r8, lsr #5
 8003834:	d847      	bhi.n	80038c6 <dir_next+0xc2>
 8003836:	2300      	movs	r3, #0
 8003838:	61ab      	str	r3, [r5, #24]
 800383a:	2004      	movs	r0, #4
 800383c:	e00d      	b.n	800385a <dir_next+0x56>
 800383e:	f8b4 900a 	ldrh.w	r9, [r4, #10]
 8003842:	f109 39ff 	add.w	r9, r9, #4294967295
 8003846:	ea19 2958 	ands.w	r9, r9, r8, lsr #9
 800384a:	d13c      	bne.n	80038c6 <dir_next+0xc2>
 800384c:	4620      	mov	r0, r4
 800384e:	f7ff feb3 	bl	80035b8 <get_fat.isra.0>
 8003852:	2801      	cmp	r0, #1
 8003854:	4606      	mov	r6, r0
 8003856:	d802      	bhi.n	800385e <dir_next+0x5a>
 8003858:	2002      	movs	r0, #2
 800385a:	e8bd 87f0 	ldmia.w	sp!, {r4, r5, r6, r7, r8, r9, sl, pc}
 800385e:	1c42      	adds	r2, r0, #1
 8003860:	d101      	bne.n	8003866 <dir_next+0x62>
 8003862:	2001      	movs	r0, #1
 8003864:	e7f9      	b.n	800385a <dir_next+0x56>
 8003866:	69a3      	ldr	r3, [r4, #24]
 8003868:	4283      	cmp	r3, r0
 800386a:	d826      	bhi.n	80038ba <dir_next+0xb6>
 800386c:	f1ba 0f00 	cmp.w	sl, #0
 8003870:	d0e1      	beq.n	8003836 <dir_next+0x32>
 8003872:	6969      	ldr	r1, [r5, #20]
 8003874:	4628      	mov	r0, r5
 8003876:	f7ff ff2d 	bl	80036d4 <create_chain>
 800387a:	4606      	mov	r6, r0
 800387c:	2800      	cmp	r0, #0
 800387e:	d035      	beq.n	80038ec <dir_next+0xe8>
 8003880:	2801      	cmp	r0, #1
 8003882:	d0e9      	beq.n	8003858 <dir_next+0x54>
 8003884:	1c43      	adds	r3, r0, #1
 8003886:	d0ec      	beq.n	8003862 <dir_next+0x5e>
 8003888:	4620      	mov	r0, r4
 800388a:	f7ff fc43 	bl	8003114 <sync_window>
 800388e:	4601      	mov	r1, r0
 8003890:	2800      	cmp	r0, #0
 8003892:	d1e6      	bne.n	8003862 <dir_next+0x5e>
 8003894:	f104 0034 	add.w	r0, r4, #52	; 0x34
 8003898:	f44f 7200 	mov.w	r2, #512	; 0x200
 800389c:	f7ff fb38 	bl	8002f10 <mem_set>
 80038a0:	4631      	mov	r1, r6
 80038a2:	4620      	mov	r0, r4
 80038a4:	f7ff fb3a 	bl	8002f1c <clust2sect>
 80038a8:	f04f 0a01 	mov.w	sl, #1
 80038ac:	8963      	ldrh	r3, [r4, #10]
 80038ae:	6320      	str	r0, [r4, #48]	; 0x30
 80038b0:	4599      	cmp	r9, r3
 80038b2:	d30f      	bcc.n	80038d4 <dir_next+0xd0>
 80038b4:	eba0 0009 	sub.w	r0, r0, r9
 80038b8:	6320      	str	r0, [r4, #48]	; 0x30
 80038ba:	616e      	str	r6, [r5, #20]
 80038bc:	4631      	mov	r1, r6
 80038be:	4620      	mov	r0, r4
 80038c0:	f7ff fb2c 	bl	8002f1c <clust2sect>
 80038c4:	61a8      	str	r0, [r5, #24]
 80038c6:	3434      	adds	r4, #52	; 0x34
 80038c8:	443c      	add	r4, r7
 80038ca:	f8c5 8010 	str.w	r8, [r5, #16]
 80038ce:	61ec      	str	r4, [r5, #28]
 80038d0:	2000      	movs	r0, #0
 80038d2:	e7c2      	b.n	800385a <dir_next+0x56>
 80038d4:	f884 a003 	strb.w	sl, [r4, #3]
 80038d8:	4620      	mov	r0, r4
 80038da:	f7ff fbf5 	bl	80030c8 <sync_window.part.0>
 80038de:	2800      	cmp	r0, #0
 80038e0:	d1bf      	bne.n	8003862 <dir_next+0x5e>
 80038e2:	6b20      	ldr	r0, [r4, #48]	; 0x30
 80038e4:	f109 0901 	add.w	r9, r9, #1
 80038e8:	3001      	adds	r0, #1
 80038ea:	e7df      	b.n	80038ac <dir_next+0xa8>
 80038ec:	2007      	movs	r0, #7
 80038ee:	e7b4      	b.n	800385a <dir_next+0x56>

080038f0 <dir_find>:
 80038f0:	e92d 4ff0 	stmdb	sp!, {r4, r5, r6, r7, r8, r9, sl, fp, lr}
 80038f4:	2100      	movs	r1, #0
 80038f6:	b085      	sub	sp, #20
 80038f8:	f8d0 b000 	ldr.w	fp, [r0]
 80038fc:	4604      	mov	r4, r0
 80038fe:	f7ff ff41 	bl	8003784 <dir_sdi>
 8003902:	4606      	mov	r6, r0
 8003904:	2800      	cmp	r0, #0
 8003906:	f040 8098 	bne.w	8003a3a <dir_find+0x14a>
 800390a:	f04f 3aff 	mov.w	sl, #4294967295
 800390e:	f04f 08ff 	mov.w	r8, #255	; 0xff
 8003912:	f8c4 a02c 	str.w	sl, [r4, #44]	; 0x2c
 8003916:	46c1      	mov	r9, r8
 8003918:	69a1      	ldr	r1, [r4, #24]
 800391a:	4658      	mov	r0, fp
 800391c:	f7ff fc00 	bl	8003120 <move_window>
 8003920:	4606      	mov	r6, r0
 8003922:	2800      	cmp	r0, #0
 8003924:	f040 8089 	bne.w	8003a3a <dir_find+0x14a>
 8003928:	69e5      	ldr	r5, [r4, #28]
 800392a:	782f      	ldrb	r7, [r5, #0]
 800392c:	2f00      	cmp	r7, #0
 800392e:	f000 8088 	beq.w	8003a42 <dir_find+0x152>
 8003932:	7aea      	ldrb	r2, [r5, #11]
 8003934:	2fe5      	cmp	r7, #229	; 0xe5
 8003936:	f002 033f 	and.w	r3, r2, #63	; 0x3f
 800393a:	71a3      	strb	r3, [r4, #6]
 800393c:	d003      	beq.n	8003946 <dir_find+0x56>
 800393e:	0710      	lsls	r0, r2, #28
 8003940:	d504      	bpl.n	800394c <dir_find+0x5c>
 8003942:	2b0f      	cmp	r3, #15
 8003944:	d004      	beq.n	8003950 <dir_find+0x60>
 8003946:	f8c4 a02c 	str.w	sl, [r4, #44]	; 0x2c
 800394a:	e050      	b.n	80039ee <dir_find+0xfe>
 800394c:	2b0f      	cmp	r3, #15
 800394e:	d156      	bne.n	80039fe <dir_find+0x10e>
 8003950:	f894 302b 	ldrb.w	r3, [r4, #43]	; 0x2b
 8003954:	0659      	lsls	r1, r3, #25
 8003956:	d440      	bmi.n	80039da <dir_find+0xea>
 8003958:	067a      	lsls	r2, r7, #25
 800395a:	d546      	bpl.n	80039ea <dir_find+0xfa>
 800395c:	6923      	ldr	r3, [r4, #16]
 800395e:	f895 800d 	ldrb.w	r8, [r5, #13]
 8003962:	62e3      	str	r3, [r4, #44]	; 0x2c
 8003964:	f007 07bf 	and.w	r7, r7, #191	; 0xbf
 8003968:	7b6b      	ldrb	r3, [r5, #13]
 800396a:	4543      	cmp	r3, r8
 800396c:	d13f      	bne.n	80039ee <dir_find+0xfe>
 800396e:	8b6b      	ldrh	r3, [r5, #26]
 8003970:	2b00      	cmp	r3, #0
 8003972:	d13c      	bne.n	80039ee <dir_find+0xfe>
 8003974:	782e      	ldrb	r6, [r5, #0]
 8003976:	f8db 300c 	ldr.w	r3, [fp, #12]
 800397a:	9300      	str	r3, [sp, #0]
 800397c:	f006 063f 	and.w	r6, r6, #63	; 0x3f
 8003980:	3e01      	subs	r6, #1
 8003982:	230d      	movs	r3, #13
 8003984:	f8df 90c4 	ldr.w	r9, [pc, #196]	; 8003a4c <dir_find+0x15c>
 8003988:	435e      	muls	r6, r3
 800398a:	2201      	movs	r2, #1
 800398c:	f819 3b01 	ldrb.w	r3, [r9], #1
 8003990:	5aeb      	ldrh	r3, [r5, r3]
 8003992:	b37a      	cbz	r2, 80039f4 <dir_find+0x104>
 8003994:	2efe      	cmp	r6, #254	; 0xfe
 8003996:	d82a      	bhi.n	80039ee <dir_find+0xfe>
 8003998:	4618      	mov	r0, r3
 800399a:	9303      	str	r3, [sp, #12]
 800399c:	f000 fd3e 	bl	800441c <ff_wtoupper>
 80039a0:	9b00      	ldr	r3, [sp, #0]
 80039a2:	9002      	str	r0, [sp, #8]
 80039a4:	1c71      	adds	r1, r6, #1
 80039a6:	f833 0016 	ldrh.w	r0, [r3, r6, lsl #1]
 80039aa:	9101      	str	r1, [sp, #4]
 80039ac:	f000 fd36 	bl	800441c <ff_wtoupper>
 80039b0:	9a02      	ldr	r2, [sp, #8]
 80039b2:	4282      	cmp	r2, r0
 80039b4:	d11b      	bne.n	80039ee <dir_find+0xfe>
 80039b6:	9b03      	ldr	r3, [sp, #12]
 80039b8:	9901      	ldr	r1, [sp, #4]
 80039ba:	461a      	mov	r2, r3
 80039bc:	460e      	mov	r6, r1
 80039be:	4b22      	ldr	r3, [pc, #136]	; (8003a48 <dir_find+0x158>)
 80039c0:	4599      	cmp	r9, r3
 80039c2:	d1e3      	bne.n	800398c <dir_find+0x9c>
 80039c4:	782b      	ldrb	r3, [r5, #0]
 80039c6:	065b      	lsls	r3, r3, #25
 80039c8:	d504      	bpl.n	80039d4 <dir_find+0xe4>
 80039ca:	b11a      	cbz	r2, 80039d4 <dir_find+0xe4>
 80039cc:	9b00      	ldr	r3, [sp, #0]
 80039ce:	f833 3016 	ldrh.w	r3, [r3, r6, lsl #1]
 80039d2:	b963      	cbnz	r3, 80039ee <dir_find+0xfe>
 80039d4:	3f01      	subs	r7, #1
 80039d6:	fa5f f987 	uxtb.w	r9, r7
 80039da:	2100      	movs	r1, #0
 80039dc:	4620      	mov	r0, r4
 80039de:	f7ff ff11 	bl	8003804 <dir_next>
 80039e2:	4606      	mov	r6, r0
 80039e4:	2800      	cmp	r0, #0
 80039e6:	d097      	beq.n	8003918 <dir_find+0x28>
 80039e8:	e027      	b.n	8003a3a <dir_find+0x14a>
 80039ea:	45b9      	cmp	r9, r7
 80039ec:	d0bc      	beq.n	8003968 <dir_find+0x78>
 80039ee:	f04f 09ff 	mov.w	r9, #255	; 0xff
 80039f2:	e7f2      	b.n	80039da <dir_find+0xea>
 80039f4:	f64f 71ff 	movw	r1, #65535	; 0xffff
 80039f8:	428b      	cmp	r3, r1
 80039fa:	d0e0      	beq.n	80039be <dir_find+0xce>
 80039fc:	e7f7      	b.n	80039ee <dir_find+0xfe>
 80039fe:	f1b9 0f00 	cmp.w	r9, #0
 8003a02:	d104      	bne.n	8003a0e <dir_find+0x11e>
 8003a04:	4628      	mov	r0, r5
 8003a06:	f7ff faa0 	bl	8002f4a <sum_sfn>
 8003a0a:	4540      	cmp	r0, r8
 8003a0c:	d015      	beq.n	8003a3a <dir_find+0x14a>
 8003a0e:	f894 602b 	ldrb.w	r6, [r4, #43]	; 0x2b
 8003a12:	f016 0601 	ands.w	r6, r6, #1
 8003a16:	d196      	bne.n	8003946 <dir_find+0x56>
 8003a18:	f104 0220 	add.w	r2, r4, #32
 8003a1c:	f105 010b 	add.w	r1, r5, #11
 8003a20:	f815 3b01 	ldrb.w	r3, [r5], #1
 8003a24:	f812 0b01 	ldrb.w	r0, [r2], #1
 8003a28:	428d      	cmp	r5, r1
 8003a2a:	eba3 0300 	sub.w	r3, r3, r0
 8003a2e:	d002      	beq.n	8003a36 <dir_find+0x146>
 8003a30:	2b00      	cmp	r3, #0
 8003a32:	d0f5      	beq.n	8003a20 <dir_find+0x130>
 8003a34:	e787      	b.n	8003946 <dir_find+0x56>
 8003a36:	2b00      	cmp	r3, #0
 8003a38:	d185      	bne.n	8003946 <dir_find+0x56>
 8003a3a:	4630      	mov	r0, r6
 8003a3c:	b005      	add	sp, #20
 8003a3e:	e8bd 8ff0 	ldmia.w	sp!, {r4, r5, r6, r7, r8, r9, sl, fp, pc}
 8003a42:	2604      	movs	r6, #4
 8003a44:	e7f9      	b.n	8003a3a <dir_find+0x14a>
 8003a46:	bf00      	nop
 8003a48:	08007d91 	.word	0x08007d91
 8003a4c:	08007d84 	.word	0x08007d84

08003a50 <dir_register>:
 8003a50:	e92d 4ff0 	stmdb	sp!, {r4, r5, r6, r7, r8, r9, sl, fp, lr}
 8003a54:	f890 502b 	ldrb.w	r5, [r0, #43]	; 0x2b
 8003a58:	f015 05a0 	ands.w	r5, r5, #160	; 0xa0
 8003a5c:	b089      	sub	sp, #36	; 0x24
 8003a5e:	4604      	mov	r4, r0
 8003a60:	f040 8090 	bne.w	8003b84 <dir_register+0x134>
 8003a64:	6806      	ldr	r6, [r0, #0]
 8003a66:	68f2      	ldr	r2, [r6, #12]
 8003a68:	f832 3015 	ldrh.w	r3, [r2, r5, lsl #1]
 8003a6c:	2b00      	cmp	r3, #0
 8003a6e:	d167      	bne.n	8003b40 <dir_register+0xf0>
 8003a70:	f104 0720 	add.w	r7, r4, #32
 8003a74:	220c      	movs	r2, #12
 8003a76:	4639      	mov	r1, r7
 8003a78:	a805      	add	r0, sp, #20
 8003a7a:	f7ff fb1c 	bl	80030b6 <mem_cpy.part.0>
 8003a7e:	f89d 301f 	ldrb.w	r3, [sp, #31]
 8003a82:	07db      	lsls	r3, r3, #31
 8003a84:	f140 8087 	bpl.w	8003b96 <dir_register+0x146>
 8003a88:	2340      	movs	r3, #64	; 0x40
 8003a8a:	f8df 8240 	ldr.w	r8, [pc, #576]	; 8003ccc <dir_register+0x27c>
 8003a8e:	f884 302b 	strb.w	r3, [r4, #43]	; 0x2b
 8003a92:	f04f 0a01 	mov.w	sl, #1
 8003a96:	220b      	movs	r2, #11
 8003a98:	a905      	add	r1, sp, #20
 8003a9a:	4638      	mov	r0, r7
 8003a9c:	f8d6 900c 	ldr.w	r9, [r6, #12]
 8003aa0:	f7ff fb09 	bl	80030b6 <mem_cpy.part.0>
 8003aa4:	f1ba 0f05 	cmp.w	sl, #5
 8003aa8:	d95b      	bls.n	8003b62 <dir_register+0x112>
 8003aaa:	f1a9 0102 	sub.w	r1, r9, #2
 8003aae:	4653      	mov	r3, sl
 8003ab0:	f831 2f02 	ldrh.w	r2, [r1, #2]!
 8003ab4:	2a00      	cmp	r2, #0
 8003ab6:	d145      	bne.n	8003b44 <dir_register+0xf4>
 8003ab8:	a805      	add	r0, sp, #20
 8003aba:	2207      	movs	r2, #7
 8003abc:	f003 0c0f 	and.w	ip, r3, #15
 8003ac0:	f10c 0130 	add.w	r1, ip, #48	; 0x30
 8003ac4:	2939      	cmp	r1, #57	; 0x39
 8003ac6:	bf88      	it	hi
 8003ac8:	f10c 0137 	addhi.w	r1, ip, #55	; 0x37
 8003acc:	2b0f      	cmp	r3, #15
 8003ace:	f800 1d01 	strb.w	r1, [r0, #-1]!
 8003ad2:	f102 32ff 	add.w	r2, r2, #4294967295
 8003ad6:	ea4f 1113 	mov.w	r1, r3, lsr #4
 8003ada:	d844      	bhi.n	8003b66 <dir_register+0x116>
 8003adc:	f102 0320 	add.w	r3, r2, #32
 8003ae0:	446b      	add	r3, sp
 8003ae2:	217e      	movs	r1, #126	; 0x7e
 8003ae4:	f803 1c14 	strb.w	r1, [r3, #-20]
 8003ae8:	f104 011f 	add.w	r1, r4, #31
 8003aec:	4608      	mov	r0, r1
 8003aee:	2300      	movs	r3, #0
 8003af0:	429a      	cmp	r2, r3
 8003af2:	d006      	beq.n	8003b02 <dir_register+0xb2>
 8003af4:	f810 cf01 	ldrb.w	ip, [r0, #1]!
 8003af8:	f1bc 0f20 	cmp.w	ip, #32
 8003afc:	f103 0e01 	add.w	lr, r3, #1
 8003b00:	d133      	bne.n	8003b6a <dir_register+0x11a>
 8003b02:	2a07      	cmp	r2, #7
 8003b04:	bf9c      	itt	ls
 8003b06:	f102 0020 	addls.w	r0, r2, #32
 8003b0a:	4468      	addls	r0, sp
 8003b0c:	f103 0301 	add.w	r3, r3, #1
 8003b10:	bf96      	itet	ls
 8003b12:	f810 0c14 	ldrbls.w	r0, [r0, #-20]
 8003b16:	2020      	movhi	r0, #32
 8003b18:	3201      	addls	r2, #1
 8003b1a:	2b07      	cmp	r3, #7
 8003b1c:	54c8      	strb	r0, [r1, r3]
 8003b1e:	d9f0      	bls.n	8003b02 <dir_register+0xb2>
 8003b20:	4620      	mov	r0, r4
 8003b22:	f7ff fee5 	bl	80038f0 <dir_find>
 8003b26:	4681      	mov	r9, r0
 8003b28:	bb78      	cbnz	r0, 8003b8a <dir_register+0x13a>
 8003b2a:	f10a 0a01 	add.w	sl, sl, #1
 8003b2e:	f1ba 0f64 	cmp.w	sl, #100	; 0x64
 8003b32:	d1b0      	bne.n	8003a96 <dir_register+0x46>
 8003b34:	f04f 0907 	mov.w	r9, #7
 8003b38:	4648      	mov	r0, r9
 8003b3a:	b009      	add	sp, #36	; 0x24
 8003b3c:	e8bd 8ff0 	ldmia.w	sp!, {r4, r5, r6, r7, r8, r9, sl, fp, pc}
 8003b40:	3501      	adds	r5, #1
 8003b42:	e791      	b.n	8003a68 <dir_register+0x18>
 8003b44:	2010      	movs	r0, #16
 8003b46:	f002 0c01 	and.w	ip, r2, #1
 8003b4a:	eb0c 0343 	add.w	r3, ip, r3, lsl #1
 8003b4e:	f413 3f80 	tst.w	r3, #65536	; 0x10000
 8003b52:	bf18      	it	ne
 8003b54:	ea83 0308 	eorne.w	r3, r3, r8
 8003b58:	3801      	subs	r0, #1
 8003b5a:	ea4f 0252 	mov.w	r2, r2, lsr #1
 8003b5e:	d1f2      	bne.n	8003b46 <dir_register+0xf6>
 8003b60:	e7a6      	b.n	8003ab0 <dir_register+0x60>
 8003b62:	4653      	mov	r3, sl
 8003b64:	e7a8      	b.n	8003ab8 <dir_register+0x68>
 8003b66:	460b      	mov	r3, r1
 8003b68:	e7a8      	b.n	8003abc <dir_register+0x6c>
 8003b6a:	4673      	mov	r3, lr
 8003b6c:	e7c0      	b.n	8003af0 <dir_register+0xa0>
 8003b6e:	4680      	mov	r8, r0
 8003b70:	2101      	movs	r1, #1
 8003b72:	4620      	mov	r0, r4
 8003b74:	f7ff fe46 	bl	8003804 <dir_next>
 8003b78:	4681      	mov	r9, r0
 8003b7a:	b310      	cbz	r0, 8003bc2 <dir_register+0x172>
 8003b7c:	f1b9 0f04 	cmp.w	r9, #4
 8003b80:	d0d8      	beq.n	8003b34 <dir_register+0xe4>
 8003b82:	e7d9      	b.n	8003b38 <dir_register+0xe8>
 8003b84:	f04f 0906 	mov.w	r9, #6
 8003b88:	e7d6      	b.n	8003b38 <dir_register+0xe8>
 8003b8a:	2804      	cmp	r0, #4
 8003b8c:	d1d4      	bne.n	8003b38 <dir_register+0xe8>
 8003b8e:	f89d 301f 	ldrb.w	r3, [sp, #31]
 8003b92:	f884 302b 	strb.w	r3, [r4, #43]	; 0x2b
 8003b96:	f89d 301f 	ldrb.w	r3, [sp, #31]
 8003b9a:	f8d4 a000 	ldr.w	sl, [r4]
 8003b9e:	079b      	lsls	r3, r3, #30
 8003ba0:	bf48      	it	mi
 8003ba2:	350c      	addmi	r5, #12
 8003ba4:	f04f 0100 	mov.w	r1, #0
 8003ba8:	4620      	mov	r0, r4
 8003baa:	bf49      	itett	mi
 8003bac:	230d      	movmi	r3, #13
 8003bae:	2501      	movpl	r5, #1
 8003bb0:	fbb5 f5f3 	udivmi	r5, r5, r3
 8003bb4:	3501      	addmi	r5, #1
 8003bb6:	f7ff fde5 	bl	8003784 <dir_sdi>
 8003bba:	4681      	mov	r9, r0
 8003bbc:	2800      	cmp	r0, #0
 8003bbe:	d1dd      	bne.n	8003b7c <dir_register+0x12c>
 8003bc0:	4680      	mov	r8, r0
 8003bc2:	69a1      	ldr	r1, [r4, #24]
 8003bc4:	4650      	mov	r0, sl
 8003bc6:	f7ff faab 	bl	8003120 <move_window>
 8003bca:	4681      	mov	r9, r0
 8003bcc:	2800      	cmp	r0, #0
 8003bce:	d1d5      	bne.n	8003b7c <dir_register+0x12c>
 8003bd0:	69e3      	ldr	r3, [r4, #28]
 8003bd2:	781b      	ldrb	r3, [r3, #0]
 8003bd4:	2be5      	cmp	r3, #229	; 0xe5
 8003bd6:	d001      	beq.n	8003bdc <dir_register+0x18c>
 8003bd8:	2b00      	cmp	r3, #0
 8003bda:	d1c8      	bne.n	8003b6e <dir_register+0x11e>
 8003bdc:	f108 0801 	add.w	r8, r8, #1
 8003be0:	4545      	cmp	r5, r8
 8003be2:	d1c5      	bne.n	8003b70 <dir_register+0x120>
 8003be4:	3d01      	subs	r5, #1
 8003be6:	d055      	beq.n	8003c94 <dir_register+0x244>
 8003be8:	6921      	ldr	r1, [r4, #16]
 8003bea:	4620      	mov	r0, r4
 8003bec:	eba1 1145 	sub.w	r1, r1, r5, lsl #5
 8003bf0:	f7ff fdc8 	bl	8003784 <dir_sdi>
 8003bf4:	4681      	mov	r9, r0
 8003bf6:	2800      	cmp	r0, #0
 8003bf8:	d19e      	bne.n	8003b38 <dir_register+0xe8>
 8003bfa:	4638      	mov	r0, r7
 8003bfc:	f7ff f9a5 	bl	8002f4a <sum_sfn>
 8003c00:	f64f 78ff 	movw	r8, #65535	; 0xffff
 8003c04:	9001      	str	r0, [sp, #4]
 8003c06:	69a1      	ldr	r1, [r4, #24]
 8003c08:	4630      	mov	r0, r6
 8003c0a:	f7ff fa89 	bl	8003120 <move_window>
 8003c0e:	4681      	mov	r9, r0
 8003c10:	2800      	cmp	r0, #0
 8003c12:	d191      	bne.n	8003b38 <dir_register+0xe8>
 8003c14:	69e3      	ldr	r3, [r4, #28]
 8003c16:	9a01      	ldr	r2, [sp, #4]
 8003c18:	f8d6 e00c 	ldr.w	lr, [r6, #12]
 8003c1c:	735a      	strb	r2, [r3, #13]
 8003c1e:	b2e9      	uxtb	r1, r5
 8003c20:	f04f 020f 	mov.w	r2, #15
 8003c24:	f04f 0c0d 	mov.w	ip, #13
 8003c28:	72da      	strb	r2, [r3, #11]
 8003c2a:	f8df a0a4 	ldr.w	sl, [pc, #164]	; 8003cd0 <dir_register+0x280>
 8003c2e:	7318      	strb	r0, [r3, #12]
 8003c30:	1e4a      	subs	r2, r1, #1
 8003c32:	fb0c f202 	mul.w	r2, ip, r2
 8003c36:	7698      	strb	r0, [r3, #26]
 8003c38:	76d8      	strb	r0, [r3, #27]
 8003c3a:	4684      	mov	ip, r0
 8003c3c:	f81a 9b01 	ldrb.w	r9, [sl], #1
 8003c40:	4540      	cmp	r0, r8
 8003c42:	bf18      	it	ne
 8003c44:	f83e 0012 	ldrhne.w	r0, [lr, r2, lsl #1]
 8003c48:	f803 0009 	strb.w	r0, [r3, r9]
 8003c4c:	eb03 0b09 	add.w	fp, r3, r9
 8003c50:	f10c 0c01 	add.w	ip, ip, #1
 8003c54:	bf18      	it	ne
 8003c56:	3201      	addne	r2, #1
 8003c58:	ea4f 2910 	mov.w	r9, r0, lsr #8
 8003c5c:	2800      	cmp	r0, #0
 8003c5e:	bf08      	it	eq
 8003c60:	4640      	moveq	r0, r8
 8003c62:	f1bc 0f0d 	cmp.w	ip, #13
 8003c66:	f88b 9001 	strb.w	r9, [fp, #1]
 8003c6a:	d1e7      	bne.n	8003c3c <dir_register+0x1ec>
 8003c6c:	4540      	cmp	r0, r8
 8003c6e:	d002      	beq.n	8003c76 <dir_register+0x226>
 8003c70:	f83e 2012 	ldrh.w	r2, [lr, r2, lsl #1]
 8003c74:	b90a      	cbnz	r2, 8003c7a <dir_register+0x22a>
 8003c76:	f041 0140 	orr.w	r1, r1, #64	; 0x40
 8003c7a:	7019      	strb	r1, [r3, #0]
 8003c7c:	2301      	movs	r3, #1
 8003c7e:	70f3      	strb	r3, [r6, #3]
 8003c80:	2100      	movs	r1, #0
 8003c82:	4620      	mov	r0, r4
 8003c84:	f7ff fdbe 	bl	8003804 <dir_next>
 8003c88:	4681      	mov	r9, r0
 8003c8a:	2800      	cmp	r0, #0
 8003c8c:	f47f af54 	bne.w	8003b38 <dir_register+0xe8>
 8003c90:	3d01      	subs	r5, #1
 8003c92:	d1b8      	bne.n	8003c06 <dir_register+0x1b6>
 8003c94:	69a1      	ldr	r1, [r4, #24]
 8003c96:	4630      	mov	r0, r6
 8003c98:	f7ff fa42 	bl	8003120 <move_window>
 8003c9c:	4681      	mov	r9, r0
 8003c9e:	2800      	cmp	r0, #0
 8003ca0:	f47f af4a 	bne.w	8003b38 <dir_register+0xe8>
 8003ca4:	4601      	mov	r1, r0
 8003ca6:	2220      	movs	r2, #32
 8003ca8:	69e0      	ldr	r0, [r4, #28]
 8003caa:	f7ff f931 	bl	8002f10 <mem_set>
 8003cae:	220b      	movs	r2, #11
 8003cb0:	69e0      	ldr	r0, [r4, #28]
 8003cb2:	4639      	mov	r1, r7
 8003cb4:	f7ff f9ff 	bl	80030b6 <mem_cpy.part.0>
 8003cb8:	f894 302b 	ldrb.w	r3, [r4, #43]	; 0x2b
 8003cbc:	69e2      	ldr	r2, [r4, #28]
 8003cbe:	f003 0318 	and.w	r3, r3, #24
 8003cc2:	7313      	strb	r3, [r2, #12]
 8003cc4:	2301      	movs	r3, #1
 8003cc6:	70f3      	strb	r3, [r6, #3]
 8003cc8:	e736      	b.n	8003b38 <dir_register+0xe8>
 8003cca:	bf00      	nop
 8003ccc:	00011021 	.word	0x00011021
 8003cd0:	08007d84 	.word	0x08007d84

08003cd4 <dir_read.constprop.0>:
 8003cd4:	e92d 43f8 	stmdb	sp!, {r3, r4, r5, r6, r7, r8, r9, lr}
 8003cd8:	27ff      	movs	r7, #255	; 0xff
 8003cda:	f8d0 8000 	ldr.w	r8, [r0]
 8003cde:	4606      	mov	r6, r0
 8003ce0:	463c      	mov	r4, r7
 8003ce2:	2504      	movs	r5, #4
 8003ce4:	f64f 79ff 	movw	r9, #65535	; 0xffff
 8003ce8:	69b1      	ldr	r1, [r6, #24]
 8003cea:	b911      	cbnz	r1, 8003cf2 <dir_read.constprop.0+0x1e>
 8003cec:	2d00      	cmp	r5, #0
 8003cee:	d05f      	beq.n	8003db0 <dir_read.constprop.0+0xdc>
 8003cf0:	e04f      	b.n	8003d92 <dir_read.constprop.0+0xbe>
 8003cf2:	4640      	mov	r0, r8
 8003cf4:	f7ff fa14 	bl	8003120 <move_window>
 8003cf8:	4605      	mov	r5, r0
 8003cfa:	2800      	cmp	r0, #0
 8003cfc:	d149      	bne.n	8003d92 <dir_read.constprop.0+0xbe>
 8003cfe:	69f0      	ldr	r0, [r6, #28]
 8003d00:	7803      	ldrb	r3, [r0, #0]
 8003d02:	2b00      	cmp	r3, #0
 8003d04:	d05c      	beq.n	8003dc0 <dir_read.constprop.0+0xec>
 8003d06:	7ac2      	ldrb	r2, [r0, #11]
 8003d08:	2be5      	cmp	r3, #229	; 0xe5
 8003d0a:	f002 023f 	and.w	r2, r2, #63	; 0x3f
 8003d0e:	71b2      	strb	r2, [r6, #6]
 8003d10:	d044      	beq.n	8003d9c <dir_read.constprop.0+0xc8>
 8003d12:	2b2e      	cmp	r3, #46	; 0x2e
 8003d14:	d042      	beq.n	8003d9c <dir_read.constprop.0+0xc8>
 8003d16:	f022 0120 	bic.w	r1, r2, #32
 8003d1a:	2908      	cmp	r1, #8
 8003d1c:	d03e      	beq.n	8003d9c <dir_read.constprop.0+0xc8>
 8003d1e:	2a0f      	cmp	r2, #15
 8003d20:	d141      	bne.n	8003da6 <dir_read.constprop.0+0xd2>
 8003d22:	0659      	lsls	r1, r3, #25
 8003d24:	d538      	bpl.n	8003d98 <dir_read.constprop.0+0xc4>
 8003d26:	f003 04bf 	and.w	r4, r3, #191	; 0xbf
 8003d2a:	6933      	ldr	r3, [r6, #16]
 8003d2c:	7b47      	ldrb	r7, [r0, #13]
 8003d2e:	62f3      	str	r3, [r6, #44]	; 0x2c
 8003d30:	7b43      	ldrb	r3, [r0, #13]
 8003d32:	42bb      	cmp	r3, r7
 8003d34:	d132      	bne.n	8003d9c <dir_read.constprop.0+0xc8>
 8003d36:	8b42      	ldrh	r2, [r0, #26]
 8003d38:	bb82      	cbnz	r2, 8003d9c <dir_read.constprop.0+0xc8>
 8003d3a:	7803      	ldrb	r3, [r0, #0]
 8003d3c:	f8d8 500c 	ldr.w	r5, [r8, #12]
 8003d40:	f8df c080 	ldr.w	ip, [pc, #128]	; 8003dc4 <dir_read.constprop.0+0xf0>
 8003d44:	f023 0340 	bic.w	r3, r3, #64	; 0x40
 8003d48:	3b01      	subs	r3, #1
 8003d4a:	210d      	movs	r1, #13
 8003d4c:	434b      	muls	r3, r1
 8003d4e:	f04f 0e01 	mov.w	lr, #1
 8003d52:	f81c 1b01 	ldrb.w	r1, [ip], #1
 8003d56:	5a41      	ldrh	r1, [r0, r1]
 8003d58:	f1be 0f00 	cmp.w	lr, #0
 8003d5c:	d020      	beq.n	8003da0 <dir_read.constprop.0+0xcc>
 8003d5e:	2bfe      	cmp	r3, #254	; 0xfe
 8003d60:	d81c      	bhi.n	8003d9c <dir_read.constprop.0+0xc8>
 8003d62:	f825 1013 	strh.w	r1, [r5, r3, lsl #1]
 8003d66:	468e      	mov	lr, r1
 8003d68:	3301      	adds	r3, #1
 8003d6a:	3201      	adds	r2, #1
 8003d6c:	2a0d      	cmp	r2, #13
 8003d6e:	d1f0      	bne.n	8003d52 <dir_read.constprop.0+0x7e>
 8003d70:	7802      	ldrb	r2, [r0, #0]
 8003d72:	0652      	lsls	r2, r2, #25
 8003d74:	d504      	bpl.n	8003d80 <dir_read.constprop.0+0xac>
 8003d76:	2bfe      	cmp	r3, #254	; 0xfe
 8003d78:	d810      	bhi.n	8003d9c <dir_read.constprop.0+0xc8>
 8003d7a:	2200      	movs	r2, #0
 8003d7c:	f825 2013 	strh.w	r2, [r5, r3, lsl #1]
 8003d80:	3c01      	subs	r4, #1
 8003d82:	b2e4      	uxtb	r4, r4
 8003d84:	2100      	movs	r1, #0
 8003d86:	4630      	mov	r0, r6
 8003d88:	f7ff fd3c 	bl	8003804 <dir_next>
 8003d8c:	4605      	mov	r5, r0
 8003d8e:	2800      	cmp	r0, #0
 8003d90:	d0aa      	beq.n	8003ce8 <dir_read.constprop.0+0x14>
 8003d92:	2300      	movs	r3, #0
 8003d94:	61b3      	str	r3, [r6, #24]
 8003d96:	e00c      	b.n	8003db2 <dir_read.constprop.0+0xde>
 8003d98:	42a3      	cmp	r3, r4
 8003d9a:	d0c9      	beq.n	8003d30 <dir_read.constprop.0+0x5c>
 8003d9c:	24ff      	movs	r4, #255	; 0xff
 8003d9e:	e7f1      	b.n	8003d84 <dir_read.constprop.0+0xb0>
 8003da0:	4549      	cmp	r1, r9
 8003da2:	d0e2      	beq.n	8003d6a <dir_read.constprop.0+0x96>
 8003da4:	e7fa      	b.n	8003d9c <dir_read.constprop.0+0xc8>
 8003da6:	b93c      	cbnz	r4, 8003db8 <dir_read.constprop.0+0xe4>
 8003da8:	f7ff f8cf 	bl	8002f4a <sum_sfn>
 8003dac:	42b8      	cmp	r0, r7
 8003dae:	d103      	bne.n	8003db8 <dir_read.constprop.0+0xe4>
 8003db0:	2500      	movs	r5, #0
 8003db2:	4628      	mov	r0, r5
 8003db4:	e8bd 83f8 	ldmia.w	sp!, {r3, r4, r5, r6, r7, r8, r9, pc}
 8003db8:	f04f 33ff 	mov.w	r3, #4294967295
 8003dbc:	62f3      	str	r3, [r6, #44]	; 0x2c
 8003dbe:	e7f8      	b.n	8003db2 <dir_read.constprop.0+0xde>
 8003dc0:	2504      	movs	r5, #4
 8003dc2:	e7e6      	b.n	8003d92 <dir_read.constprop.0+0xbe>
 8003dc4:	08007d84 	.word	0x08007d84

08003dc8 <follow_path>:
 8003dc8:	e92d 4ff7 	stmdb	sp!, {r0, r1, r2, r4, r5, r6, r7, r8, r9, sl, fp, lr}
 8003dcc:	f8d0 b000 	ldr.w	fp, [r0]
 8003dd0:	4606      	mov	r6, r0
 8003dd2:	4689      	mov	r9, r1
 8003dd4:	f811 3b01 	ldrb.w	r3, [r1], #1
 8003dd8:	2b2f      	cmp	r3, #47	; 0x2f
 8003dda:	d0fa      	beq.n	8003dd2 <follow_path+0xa>
 8003ddc:	2b5c      	cmp	r3, #92	; 0x5c
 8003dde:	d0f8      	beq.n	8003dd2 <follow_path+0xa>
 8003de0:	2100      	movs	r1, #0
 8003de2:	60b1      	str	r1, [r6, #8]
 8003de4:	f899 3000 	ldrb.w	r3, [r9]
 8003de8:	2b1f      	cmp	r3, #31
 8003dea:	f200 80b2 	bhi.w	8003f52 <follow_path+0x18a>
 8003dee:	2380      	movs	r3, #128	; 0x80
 8003df0:	4630      	mov	r0, r6
 8003df2:	f886 302b 	strb.w	r3, [r6, #43]	; 0x2b
 8003df6:	b003      	add	sp, #12
 8003df8:	e8bd 4ff0 	ldmia.w	sp!, {r4, r5, r6, r7, r8, r9, sl, fp, lr}
 8003dfc:	f7ff bcc2 	b.w	8003784 <dir_sdi>
 8003e00:	3501      	adds	r5, #1
 8003e02:	e0ba      	b.n	8003f7a <follow_path+0x1b2>
 8003e04:	f5b5 7f80 	cmp.w	r5, #256	; 0x100
 8003e08:	e9cd 3200 	strd	r3, r2, [sp]
 8003e0c:	d00e      	beq.n	8003e2c <follow_path+0x64>
 8003e0e:	2101      	movs	r1, #1
 8003e10:	4620      	mov	r0, r4
 8003e12:	f000 fae7 	bl	80043e4 <ff_convert>
 8003e16:	b148      	cbz	r0, 8003e2c <follow_path+0x64>
 8003e18:	287f      	cmp	r0, #127	; 0x7f
 8003e1a:	e9dd 3200 	ldrd	r3, r2, [sp]
 8003e1e:	d807      	bhi.n	8003e30 <follow_path+0x68>
 8003e20:	4c7f      	ldr	r4, [pc, #508]	; (8004020 <follow_path+0x258>)
 8003e22:	f814 1b01 	ldrb.w	r1, [r4], #1
 8003e26:	b119      	cbz	r1, 8003e30 <follow_path+0x68>
 8003e28:	4288      	cmp	r0, r1
 8003e2a:	d1fa      	bne.n	8003e22 <follow_path+0x5a>
 8003e2c:	2006      	movs	r0, #6
 8003e2e:	e04d      	b.n	8003ecc <follow_path+0x104>
 8003e30:	f823 0f02 	strh.w	r0, [r3, #2]!
 8003e34:	462f      	mov	r7, r5
 8003e36:	e095      	b.n	8003f64 <follow_path+0x19c>
 8003e38:	f838 3017 	ldrh.w	r3, [r8, r7, lsl #1]
 8003e3c:	2b20      	cmp	r3, #32
 8003e3e:	d002      	beq.n	8003e46 <follow_path+0x7e>
 8003e40:	2b2e      	cmp	r3, #46	; 0x2e
 8003e42:	f040 80a6 	bne.w	8003f92 <follow_path+0x1ca>
 8003e46:	3f01      	subs	r7, #1
 8003e48:	e0a0      	b.n	8003f8c <follow_path+0x1c4>
 8003e4a:	3101      	adds	r1, #1
 8003e4c:	e0ad      	b.n	8003faa <follow_path+0x1e2>
 8003e4e:	4543      	cmp	r3, r8
 8003e50:	d205      	bcs.n	8003e5e <follow_path+0x96>
 8003e52:	42ba      	cmp	r2, r7
 8003e54:	d149      	bne.n	8003eea <follow_path+0x122>
 8003e56:	f1b8 0f0b 	cmp.w	r8, #11
 8003e5a:	d13f      	bne.n	8003edc <follow_path+0x114>
 8003e5c:	e002      	b.n	8003e64 <follow_path+0x9c>
 8003e5e:	f1b8 0f0b 	cmp.w	r8, #11
 8003e62:	d136      	bne.n	8003ed2 <follow_path+0x10a>
 8003e64:	f044 0403 	orr.w	r4, r4, #3
 8003e68:	f04f 080b 	mov.w	r8, #11
 8003e6c:	f896 3020 	ldrb.w	r3, [r6, #32]
 8003e70:	2be5      	cmp	r3, #229	; 0xe5
 8003e72:	bf04      	itt	eq
 8003e74:	2305      	moveq	r3, #5
 8003e76:	f886 3020 	strbeq.w	r3, [r6, #32]
 8003e7a:	f1b8 0f08 	cmp.w	r8, #8
 8003e7e:	bf04      	itt	eq
 8003e80:	00ad      	lsleq	r5, r5, #2
 8003e82:	b2ed      	uxtbeq	r5, r5
 8003e84:	f005 030c 	and.w	r3, r5, #12
 8003e88:	2b0c      	cmp	r3, #12
 8003e8a:	d003      	beq.n	8003e94 <follow_path+0xcc>
 8003e8c:	f005 0203 	and.w	r2, r5, #3
 8003e90:	2a03      	cmp	r2, #3
 8003e92:	d101      	bne.n	8003e98 <follow_path+0xd0>
 8003e94:	f044 0402 	orr.w	r4, r4, #2
 8003e98:	07a1      	lsls	r1, r4, #30
 8003e9a:	d409      	bmi.n	8003eb0 <follow_path+0xe8>
 8003e9c:	f005 0503 	and.w	r5, r5, #3
 8003ea0:	2d01      	cmp	r5, #1
 8003ea2:	bf08      	it	eq
 8003ea4:	f044 0410 	orreq.w	r4, r4, #16
 8003ea8:	2b04      	cmp	r3, #4
 8003eaa:	bf08      	it	eq
 8003eac:	f044 0408 	orreq.w	r4, r4, #8
 8003eb0:	f886 402b 	strb.w	r4, [r6, #43]	; 0x2b
 8003eb4:	4630      	mov	r0, r6
 8003eb6:	f7ff fd1b 	bl	80038f0 <dir_find>
 8003eba:	f896 302b 	ldrb.w	r3, [r6, #43]	; 0x2b
 8003ebe:	b3c0      	cbz	r0, 8003f32 <follow_path+0x16a>
 8003ec0:	2804      	cmp	r0, #4
 8003ec2:	d103      	bne.n	8003ecc <follow_path+0x104>
 8003ec4:	f013 0f04 	tst.w	r3, #4
 8003ec8:	bf08      	it	eq
 8003eca:	2005      	moveq	r0, #5
 8003ecc:	b003      	add	sp, #12
 8003ece:	e8bd 8ff0 	ldmia.w	sp!, {r4, r5, r6, r7, r8, r9, sl, fp, pc}
 8003ed2:	42ba      	cmp	r2, r7
 8003ed4:	d002      	beq.n	8003edc <follow_path+0x114>
 8003ed6:	f044 0403 	orr.w	r4, r4, #3
 8003eda:	d8c7      	bhi.n	8003e6c <follow_path+0xa4>
 8003edc:	00ad      	lsls	r5, r5, #2
 8003ede:	b2ed      	uxtb	r5, r5
 8003ee0:	463a      	mov	r2, r7
 8003ee2:	f04f 080b 	mov.w	r8, #11
 8003ee6:	2308      	movs	r3, #8
 8003ee8:	e089      	b.n	8003ffe <follow_path+0x236>
 8003eea:	287f      	cmp	r0, #127	; 0x7f
 8003eec:	d90e      	bls.n	8003f0c <follow_path+0x144>
 8003eee:	2100      	movs	r1, #0
 8003ef0:	e9cd 2300 	strd	r2, r3, [sp]
 8003ef4:	f000 fa76 	bl	80043e4 <ff_convert>
 8003ef8:	f044 0402 	orr.w	r4, r4, #2
 8003efc:	e9dd 2300 	ldrd	r2, r3, [sp]
 8003f00:	b160      	cbz	r0, 8003f1c <follow_path+0x154>
 8003f02:	4948      	ldr	r1, [pc, #288]	; (8004024 <follow_path+0x25c>)
 8003f04:	4408      	add	r0, r1
 8003f06:	f810 0c80 	ldrb.w	r0, [r0, #-128]
 8003f0a:	b138      	cbz	r0, 8003f1c <follow_path+0x154>
 8003f0c:	f8df c118 	ldr.w	ip, [pc, #280]	; 8004028 <follow_path+0x260>
 8003f10:	f81c 1b01 	ldrb.w	r1, [ip], #1
 8003f14:	2900      	cmp	r1, #0
 8003f16:	d076      	beq.n	8004006 <follow_path+0x23e>
 8003f18:	4281      	cmp	r1, r0
 8003f1a:	d1f9      	bne.n	8003f10 <follow_path+0x148>
 8003f1c:	f044 0403 	orr.w	r4, r4, #3
 8003f20:	205f      	movs	r0, #95	; 0x5f
 8003f22:	18f1      	adds	r1, r6, r3
 8003f24:	3301      	adds	r3, #1
 8003f26:	f881 0020 	strb.w	r0, [r1, #32]
 8003f2a:	e068      	b.n	8003ffe <follow_path+0x236>
 8003f2c:	f045 0502 	orr.w	r5, r5, #2
 8003f30:	e7f7      	b.n	8003f22 <follow_path+0x15a>
 8003f32:	075a      	lsls	r2, r3, #29
 8003f34:	d4ca      	bmi.n	8003ecc <follow_path+0x104>
 8003f36:	79b3      	ldrb	r3, [r6, #6]
 8003f38:	06db      	lsls	r3, r3, #27
 8003f3a:	d562      	bpl.n	8004002 <follow_path+0x23a>
 8003f3c:	6933      	ldr	r3, [r6, #16]
 8003f3e:	f89b 0000 	ldrb.w	r0, [fp]
 8003f42:	f3c3 0308 	ubfx	r3, r3, #0, #9
 8003f46:	f10b 0134 	add.w	r1, fp, #52	; 0x34
 8003f4a:	4419      	add	r1, r3
 8003f4c:	f7ff fb2c 	bl	80035a8 <ld_clust.isra.0>
 8003f50:	60b0      	str	r0, [r6, #8]
 8003f52:	6833      	ldr	r3, [r6, #0]
 8003f54:	f8d3 a00c 	ldr.w	sl, [r3, #12]
 8003f58:	f1aa 0802 	sub.w	r8, sl, #2
 8003f5c:	f109 32ff 	add.w	r2, r9, #4294967295
 8003f60:	4643      	mov	r3, r8
 8003f62:	2700      	movs	r7, #0
 8003f64:	f812 4f01 	ldrb.w	r4, [r2, #1]!
 8003f68:	2c1f      	cmp	r4, #31
 8003f6a:	f107 0501 	add.w	r5, r7, #1
 8003f6e:	d90c      	bls.n	8003f8a <follow_path+0x1c2>
 8003f70:	2c2f      	cmp	r4, #47	; 0x2f
 8003f72:	d002      	beq.n	8003f7a <follow_path+0x1b2>
 8003f74:	2c5c      	cmp	r4, #92	; 0x5c
 8003f76:	f47f af45 	bne.w	8003e04 <follow_path+0x3c>
 8003f7a:	f819 3005 	ldrb.w	r3, [r9, r5]
 8003f7e:	2b2f      	cmp	r3, #47	; 0x2f
 8003f80:	f43f af3e 	beq.w	8003e00 <follow_path+0x38>
 8003f84:	2b5c      	cmp	r3, #92	; 0x5c
 8003f86:	f43f af3b 	beq.w	8003e00 <follow_path+0x38>
 8003f8a:	44a9      	add	r9, r5
 8003f8c:	2f00      	cmp	r7, #0
 8003f8e:	f47f af53 	bne.w	8003e38 <follow_path+0x70>
 8003f92:	2300      	movs	r3, #0
 8003f94:	f82a 3017 	strh.w	r3, [sl, r7, lsl #1]
 8003f98:	2f00      	cmp	r7, #0
 8003f9a:	f43f af47 	beq.w	8003e2c <follow_path+0x64>
 8003f9e:	2120      	movs	r1, #32
 8003fa0:	1870      	adds	r0, r6, r1
 8003fa2:	220b      	movs	r2, #11
 8003fa4:	f7fe ffb4 	bl	8002f10 <mem_set>
 8003fa8:	4619      	mov	r1, r3
 8003faa:	f83a 3011 	ldrh.w	r3, [sl, r1, lsl #1]
 8003fae:	2b20      	cmp	r3, #32
 8003fb0:	f43f af4b 	beq.w	8003e4a <follow_path+0x82>
 8003fb4:	2b2e      	cmp	r3, #46	; 0x2e
 8003fb6:	f43f af48 	beq.w	8003e4a <follow_path+0x82>
 8003fba:	2c1f      	cmp	r4, #31
 8003fbc:	bf8c      	ite	hi
 8003fbe:	2400      	movhi	r4, #0
 8003fc0:	2401      	movls	r4, #1
 8003fc2:	00a4      	lsls	r4, r4, #2
 8003fc4:	b109      	cbz	r1, 8003fca <follow_path+0x202>
 8003fc6:	f044 0403 	orr.w	r4, r4, #3
 8003fca:	f838 3017 	ldrh.w	r3, [r8, r7, lsl #1]
 8003fce:	2b2e      	cmp	r3, #46	; 0x2e
 8003fd0:	d001      	beq.n	8003fd6 <follow_path+0x20e>
 8003fd2:	3f01      	subs	r7, #1
 8003fd4:	d1f9      	bne.n	8003fca <follow_path+0x202>
 8003fd6:	2300      	movs	r3, #0
 8003fd8:	f04f 0808 	mov.w	r8, #8
 8003fdc:	461d      	mov	r5, r3
 8003fde:	f83a 0011 	ldrh.w	r0, [sl, r1, lsl #1]
 8003fe2:	1c4a      	adds	r2, r1, #1
 8003fe4:	2800      	cmp	r0, #0
 8003fe6:	f43f af41 	beq.w	8003e6c <follow_path+0xa4>
 8003fea:	2820      	cmp	r0, #32
 8003fec:	d005      	beq.n	8003ffa <follow_path+0x232>
 8003fee:	282e      	cmp	r0, #46	; 0x2e
 8003ff0:	f47f af2d 	bne.w	8003e4e <follow_path+0x86>
 8003ff4:	42ba      	cmp	r2, r7
 8003ff6:	f43f af2e 	beq.w	8003e56 <follow_path+0x8e>
 8003ffa:	f044 0403 	orr.w	r4, r4, #3
 8003ffe:	4611      	mov	r1, r2
 8004000:	e7ed      	b.n	8003fde <follow_path+0x216>
 8004002:	2005      	movs	r0, #5
 8004004:	e762      	b.n	8003ecc <follow_path+0x104>
 8004006:	f1a0 0141 	sub.w	r1, r0, #65	; 0x41
 800400a:	2919      	cmp	r1, #25
 800400c:	d98e      	bls.n	8003f2c <follow_path+0x164>
 800400e:	f1a0 0161 	sub.w	r1, r0, #97	; 0x61
 8004012:	2919      	cmp	r1, #25
 8004014:	bf9e      	ittt	ls
 8004016:	3820      	subls	r0, #32
 8004018:	f045 0501 	orrls.w	r5, r5, #1
 800401c:	b280      	uxthls	r0, r0
 800401e:	e780      	b.n	8003f22 <follow_path+0x15a>
 8004020:	08007cf4 	.word	0x08007cf4
 8004024:	08007d04 	.word	0x08007d04
 8004028:	08007cfd 	.word	0x08007cfd

0800402c <f_mount>:
 800402c:	b51f      	push	{r0, r1, r2, r3, r4, lr}
 800402e:	e9cd 1000 	strd	r1, r0, [sp]
 8004032:	a803      	add	r0, sp, #12
 8004034:	4614      	mov	r4, r2
 8004036:	9103      	str	r1, [sp, #12]
 8004038:	f7fe ff96 	bl	8002f68 <get_ldnumber>
 800403c:	1e03      	subs	r3, r0, #0
 800403e:	db15      	blt.n	800406c <f_mount+0x40>
 8004040:	4a0c      	ldr	r2, [pc, #48]	; (8004074 <f_mount+0x48>)
 8004042:	f852 1023 	ldr.w	r1, [r2, r3, lsl #2]
 8004046:	b109      	cbz	r1, 800404c <f_mount+0x20>
 8004048:	2000      	movs	r0, #0
 800404a:	7008      	strb	r0, [r1, #0]
 800404c:	9801      	ldr	r0, [sp, #4]
 800404e:	b108      	cbz	r0, 8004054 <f_mount+0x28>
 8004050:	2100      	movs	r1, #0
 8004052:	7001      	strb	r1, [r0, #0]
 8004054:	f842 0023 	str.w	r0, [r2, r3, lsl #2]
 8004058:	b130      	cbz	r0, 8004068 <f_mount+0x3c>
 800405a:	2c01      	cmp	r4, #1
 800405c:	d108      	bne.n	8004070 <f_mount+0x44>
 800405e:	2200      	movs	r2, #0
 8004060:	a901      	add	r1, sp, #4
 8004062:	4668      	mov	r0, sp
 8004064:	f7ff f8b2 	bl	80031cc <find_volume>
 8004068:	b004      	add	sp, #16
 800406a:	bd10      	pop	{r4, pc}
 800406c:	200b      	movs	r0, #11
 800406e:	e7fb      	b.n	8004068 <f_mount+0x3c>
 8004070:	2000      	movs	r0, #0
 8004072:	e7f9      	b.n	8004068 <f_mount+0x3c>
 8004074:	20000600 	.word	0x20000600

08004078 <f_open>:
 8004078:	e92d 43f0 	stmdb	sp!, {r4, r5, r6, r7, r8, r9, lr}
 800407c:	b091      	sub	sp, #68	; 0x44
 800407e:	4690      	mov	r8, r2
 8004080:	9101      	str	r1, [sp, #4]
 8004082:	4604      	mov	r4, r0
 8004084:	2800      	cmp	r0, #0
 8004086:	f000 80d0 	beq.w	800422a <f_open+0x1b2>
 800408a:	f002 063f 	and.w	r6, r2, #63	; 0x3f
 800408e:	4632      	mov	r2, r6
 8004090:	a903      	add	r1, sp, #12
 8004092:	a801      	add	r0, sp, #4
 8004094:	f7ff f89a 	bl	80031cc <find_volume>
 8004098:	4607      	mov	r7, r0
 800409a:	2800      	cmp	r0, #0
 800409c:	d14c      	bne.n	8004138 <f_open+0xc0>
 800409e:	9d03      	ldr	r5, [sp, #12]
 80040a0:	9901      	ldr	r1, [sp, #4]
 80040a2:	9504      	str	r5, [sp, #16]
 80040a4:	a804      	add	r0, sp, #16
 80040a6:	f7ff fe8f 	bl	8003dc8 <follow_path>
 80040aa:	b920      	cbnz	r0, 80040b6 <f_open+0x3e>
 80040ac:	f99d 303b 	ldrsb.w	r3, [sp, #59]	; 0x3b
 80040b0:	2b00      	cmp	r3, #0
 80040b2:	bfb8      	it	lt
 80040b4:	2006      	movlt	r0, #6
 80040b6:	f018 0f1c 	tst.w	r8, #28
 80040ba:	f000 8095 	beq.w	80041e8 <f_open+0x170>
 80040be:	2800      	cmp	r0, #0
 80040c0:	d041      	beq.n	8004146 <f_open+0xce>
 80040c2:	2804      	cmp	r0, #4
 80040c4:	d138      	bne.n	8004138 <f_open+0xc0>
 80040c6:	a804      	add	r0, sp, #16
 80040c8:	f7ff fcc2 	bl	8003a50 <dir_register>
 80040cc:	bba0      	cbnz	r0, 8004138 <f_open+0xc0>
 80040ce:	f046 0608 	orr.w	r6, r6, #8
 80040d2:	f7fd fdf1 	bl	8001cb8 <get_fattime>
 80040d6:	4601      	mov	r1, r0
 80040d8:	9000      	str	r0, [sp, #0]
 80040da:	980b      	ldr	r0, [sp, #44]	; 0x2c
 80040dc:	300e      	adds	r0, #14
 80040de:	f7fe ff0f 	bl	8002f00 <st_dword>
 80040e2:	980b      	ldr	r0, [sp, #44]	; 0x2c
 80040e4:	9900      	ldr	r1, [sp, #0]
 80040e6:	3016      	adds	r0, #22
 80040e8:	f7fe ff0a 	bl	8002f00 <st_dword>
 80040ec:	9b0b      	ldr	r3, [sp, #44]	; 0x2c
 80040ee:	2220      	movs	r2, #32
 80040f0:	72da      	strb	r2, [r3, #11]
 80040f2:	990b      	ldr	r1, [sp, #44]	; 0x2c
 80040f4:	7828      	ldrb	r0, [r5, #0]
 80040f6:	f7ff fa57 	bl	80035a8 <ld_clust.isra.0>
 80040fa:	2200      	movs	r2, #0
 80040fc:	4680      	mov	r8, r0
 80040fe:	4628      	mov	r0, r5
 8004100:	f7fe ff17 	bl	8002f32 <st_clust>
 8004104:	9b0b      	ldr	r3, [sp, #44]	; 0x2c
 8004106:	2200      	movs	r2, #0
 8004108:	771a      	strb	r2, [r3, #28]
 800410a:	775a      	strb	r2, [r3, #29]
 800410c:	779a      	strb	r2, [r3, #30]
 800410e:	77da      	strb	r2, [r3, #31]
 8004110:	2301      	movs	r3, #1
 8004112:	70eb      	strb	r3, [r5, #3]
 8004114:	f1b8 0f00 	cmp.w	r8, #0
 8004118:	d020      	beq.n	800415c <f_open+0xe4>
 800411a:	4641      	mov	r1, r8
 800411c:	a804      	add	r0, sp, #16
 800411e:	f8d5 9030 	ldr.w	r9, [r5, #48]	; 0x30
 8004122:	f7ff fa9f 	bl	8003664 <remove_chain>
 8004126:	b938      	cbnz	r0, 8004138 <f_open+0xc0>
 8004128:	4649      	mov	r1, r9
 800412a:	4628      	mov	r0, r5
 800412c:	f7fe fff8 	bl	8003120 <move_window>
 8004130:	f108 33ff 	add.w	r3, r8, #4294967295
 8004134:	612b      	str	r3, [r5, #16]
 8004136:	b188      	cbz	r0, 800415c <f_open+0xe4>
 8004138:	2300      	movs	r3, #0
 800413a:	6023      	str	r3, [r4, #0]
 800413c:	4607      	mov	r7, r0
 800413e:	4638      	mov	r0, r7
 8004140:	b011      	add	sp, #68	; 0x44
 8004142:	e8bd 83f0 	ldmia.w	sp!, {r4, r5, r6, r7, r8, r9, pc}
 8004146:	f89d 3016 	ldrb.w	r3, [sp, #22]
 800414a:	f013 0f11 	tst.w	r3, #17
 800414e:	d156      	bne.n	80041fe <f_open+0x186>
 8004150:	f018 0f04 	tst.w	r8, #4
 8004154:	d163      	bne.n	800421e <f_open+0x1a6>
 8004156:	f018 0f08 	tst.w	r8, #8
 800415a:	d1ba      	bne.n	80040d2 <f_open+0x5a>
 800415c:	6b2b      	ldr	r3, [r5, #48]	; 0x30
 800415e:	6223      	str	r3, [r4, #32]
 8004160:	0731      	lsls	r1, r6, #28
 8004162:	990b      	ldr	r1, [sp, #44]	; 0x2c
 8004164:	6261      	str	r1, [r4, #36]	; 0x24
 8004166:	7828      	ldrb	r0, [r5, #0]
 8004168:	bf48      	it	mi
 800416a:	f046 0640 	orrmi.w	r6, r6, #64	; 0x40
 800416e:	f7ff fa1b 	bl	80035a8 <ld_clust.isra.0>
 8004172:	60a0      	str	r0, [r4, #8]
 8004174:	f101 001c 	add.w	r0, r1, #28
 8004178:	f7fe fec0 	bl	8002efc <ld_dword>
 800417c:	2100      	movs	r1, #0
 800417e:	88eb      	ldrh	r3, [r5, #6]
 8004180:	60e0      	str	r0, [r4, #12]
 8004182:	f104 082c 	add.w	r8, r4, #44	; 0x2c
 8004186:	f44f 7200 	mov.w	r2, #512	; 0x200
 800418a:	62a1      	str	r1, [r4, #40]	; 0x28
 800418c:	6025      	str	r5, [r4, #0]
 800418e:	80a3      	strh	r3, [r4, #4]
 8004190:	7426      	strb	r6, [r4, #16]
 8004192:	7461      	strb	r1, [r4, #17]
 8004194:	61e1      	str	r1, [r4, #28]
 8004196:	6161      	str	r1, [r4, #20]
 8004198:	4640      	mov	r0, r8
 800419a:	f7fe feb9 	bl	8002f10 <mem_set>
 800419e:	06b2      	lsls	r2, r6, #26
 80041a0:	d5cd      	bpl.n	800413e <f_open+0xc6>
 80041a2:	68e6      	ldr	r6, [r4, #12]
 80041a4:	2e00      	cmp	r6, #0
 80041a6:	d0ca      	beq.n	800413e <f_open+0xc6>
 80041a8:	f8b5 900a 	ldrh.w	r9, [r5, #10]
 80041ac:	68a1      	ldr	r1, [r4, #8]
 80041ae:	6166      	str	r6, [r4, #20]
 80041b0:	ea4f 2949 	mov.w	r9, r9, lsl #9
 80041b4:	45b1      	cmp	r9, r6
 80041b6:	d324      	bcc.n	8004202 <f_open+0x18a>
 80041b8:	2000      	movs	r0, #0
 80041ba:	61a1      	str	r1, [r4, #24]
 80041bc:	2800      	cmp	r0, #0
 80041be:	d1bb      	bne.n	8004138 <f_open+0xc0>
 80041c0:	f3c6 0308 	ubfx	r3, r6, #0, #9
 80041c4:	2b00      	cmp	r3, #0
 80041c6:	d0ba      	beq.n	800413e <f_open+0xc6>
 80041c8:	4628      	mov	r0, r5
 80041ca:	f7fe fea7 	bl	8002f1c <clust2sect>
 80041ce:	b350      	cbz	r0, 8004226 <f_open+0x1ae>
 80041d0:	eb00 2256 	add.w	r2, r0, r6, lsr #9
 80041d4:	61e2      	str	r2, [r4, #28]
 80041d6:	7868      	ldrb	r0, [r5, #1]
 80041d8:	2301      	movs	r3, #1
 80041da:	4641      	mov	r1, r8
 80041dc:	f7fe fe64 	bl	8002ea8 <disk_read>
 80041e0:	2800      	cmp	r0, #0
 80041e2:	d0ac      	beq.n	800413e <f_open+0xc6>
 80041e4:	2001      	movs	r0, #1
 80041e6:	e7a7      	b.n	8004138 <f_open+0xc0>
 80041e8:	2800      	cmp	r0, #0
 80041ea:	d1a5      	bne.n	8004138 <f_open+0xc0>
 80041ec:	f89d 3016 	ldrb.w	r3, [sp, #22]
 80041f0:	06da      	lsls	r2, r3, #27
 80041f2:	d416      	bmi.n	8004222 <f_open+0x1aa>
 80041f4:	f018 0f02 	tst.w	r8, #2
 80041f8:	d0b0      	beq.n	800415c <f_open+0xe4>
 80041fa:	07d8      	lsls	r0, r3, #31
 80041fc:	d5ae      	bpl.n	800415c <f_open+0xe4>
 80041fe:	2007      	movs	r0, #7
 8004200:	e79a      	b.n	8004138 <f_open+0xc0>
 8004202:	6820      	ldr	r0, [r4, #0]
 8004204:	f7ff f9d8 	bl	80035b8 <get_fat.isra.0>
 8004208:	2801      	cmp	r0, #1
 800420a:	4601      	mov	r1, r0
 800420c:	eba6 0609 	sub.w	r6, r6, r9
 8004210:	d903      	bls.n	800421a <f_open+0x1a2>
 8004212:	1c43      	adds	r3, r0, #1
 8004214:	d1ce      	bne.n	80041b4 <f_open+0x13c>
 8004216:	2001      	movs	r0, #1
 8004218:	e7cf      	b.n	80041ba <f_open+0x142>
 800421a:	2002      	movs	r0, #2
 800421c:	e7cd      	b.n	80041ba <f_open+0x142>
 800421e:	2008      	movs	r0, #8
 8004220:	e78a      	b.n	8004138 <f_open+0xc0>
 8004222:	2004      	movs	r0, #4
 8004224:	e788      	b.n	8004138 <f_open+0xc0>
 8004226:	2002      	movs	r0, #2
 8004228:	e786      	b.n	8004138 <f_open+0xc0>
 800422a:	2709      	movs	r7, #9
 800422c:	e787      	b.n	800413e <f_open+0xc6>

0800422e <f_sync>:
 800422e:	e92d 41f3 	stmdb	sp!, {r0, r1, r4, r5, r6, r7, r8, lr}
 8004232:	a901      	add	r1, sp, #4
 8004234:	4605      	mov	r5, r0
 8004236:	f7fe feaf 	bl	8002f98 <validate>
 800423a:	4604      	mov	r4, r0
 800423c:	2800      	cmp	r0, #0
 800423e:	d13b      	bne.n	80042b8 <f_sync+0x8a>
 8004240:	7c2b      	ldrb	r3, [r5, #16]
 8004242:	f013 0440 	ands.w	r4, r3, #64	; 0x40
 8004246:	d037      	beq.n	80042b8 <f_sync+0x8a>
 8004248:	061b      	lsls	r3, r3, #24
 800424a:	9f01      	ldr	r7, [sp, #4]
 800424c:	d50b      	bpl.n	8004266 <f_sync+0x38>
 800424e:	69ea      	ldr	r2, [r5, #28]
 8004250:	7878      	ldrb	r0, [r7, #1]
 8004252:	2301      	movs	r3, #1
 8004254:	f105 012c 	add.w	r1, r5, #44	; 0x2c
 8004258:	f7fe fe34 	bl	8002ec4 <disk_write>
 800425c:	bb80      	cbnz	r0, 80042c0 <f_sync+0x92>
 800425e:	7c2b      	ldrb	r3, [r5, #16]
 8004260:	f003 037f 	and.w	r3, r3, #127	; 0x7f
 8004264:	742b      	strb	r3, [r5, #16]
 8004266:	f7fd fd27 	bl	8001cb8 <get_fattime>
 800426a:	6a29      	ldr	r1, [r5, #32]
 800426c:	4680      	mov	r8, r0
 800426e:	4638      	mov	r0, r7
 8004270:	f7fe ff56 	bl	8003120 <move_window>
 8004274:	4604      	mov	r4, r0
 8004276:	b9f8      	cbnz	r0, 80042b8 <f_sync+0x8a>
 8004278:	6a6e      	ldr	r6, [r5, #36]	; 0x24
 800427a:	7af3      	ldrb	r3, [r6, #11]
 800427c:	f043 0320 	orr.w	r3, r3, #32
 8004280:	72f3      	strb	r3, [r6, #11]
 8004282:	68aa      	ldr	r2, [r5, #8]
 8004284:	6828      	ldr	r0, [r5, #0]
 8004286:	4631      	mov	r1, r6
 8004288:	f7fe fe53 	bl	8002f32 <st_clust>
 800428c:	68e9      	ldr	r1, [r5, #12]
 800428e:	f106 001c 	add.w	r0, r6, #28
 8004292:	f7fe fe35 	bl	8002f00 <st_dword>
 8004296:	4641      	mov	r1, r8
 8004298:	f106 0016 	add.w	r0, r6, #22
 800429c:	f7fe fe30 	bl	8002f00 <st_dword>
 80042a0:	2301      	movs	r3, #1
 80042a2:	74b4      	strb	r4, [r6, #18]
 80042a4:	74f4      	strb	r4, [r6, #19]
 80042a6:	4638      	mov	r0, r7
 80042a8:	70fb      	strb	r3, [r7, #3]
 80042aa:	f7ff f932 	bl	8003512 <sync_fs>
 80042ae:	7c2b      	ldrb	r3, [r5, #16]
 80042b0:	f023 0340 	bic.w	r3, r3, #64	; 0x40
 80042b4:	4604      	mov	r4, r0
 80042b6:	742b      	strb	r3, [r5, #16]
 80042b8:	4620      	mov	r0, r4
 80042ba:	b002      	add	sp, #8
 80042bc:	e8bd 81f0 	ldmia.w	sp!, {r4, r5, r6, r7, r8, pc}
 80042c0:	2401      	movs	r4, #1
 80042c2:	e7f9      	b.n	80042b8 <f_sync+0x8a>

080042c4 <f_close>:
 80042c4:	b513      	push	{r0, r1, r4, lr}
 80042c6:	4604      	mov	r4, r0
 80042c8:	f7ff ffb1 	bl	800422e <f_sync>
 80042cc:	b928      	cbnz	r0, 80042da <f_close+0x16>
 80042ce:	a901      	add	r1, sp, #4
 80042d0:	4620      	mov	r0, r4
 80042d2:	f7fe fe61 	bl	8002f98 <validate>
 80042d6:	b900      	cbnz	r0, 80042da <f_close+0x16>
 80042d8:	6020      	str	r0, [r4, #0]
 80042da:	b002      	add	sp, #8
 80042dc:	bd10      	pop	{r4, pc}

080042de <f_opendir>:
 80042de:	b530      	push	{r4, r5, lr}
 80042e0:	b085      	sub	sp, #20
 80042e2:	4604      	mov	r4, r0
 80042e4:	9101      	str	r1, [sp, #4]
 80042e6:	b340      	cbz	r0, 800433a <f_opendir+0x5c>
 80042e8:	2200      	movs	r2, #0
 80042ea:	a903      	add	r1, sp, #12
 80042ec:	a801      	add	r0, sp, #4
 80042ee:	f7fe ff6d 	bl	80031cc <find_volume>
 80042f2:	b970      	cbnz	r0, 8004312 <f_opendir+0x34>
 80042f4:	9d03      	ldr	r5, [sp, #12]
 80042f6:	9901      	ldr	r1, [sp, #4]
 80042f8:	6025      	str	r5, [r4, #0]
 80042fa:	4620      	mov	r0, r4
 80042fc:	f7ff fd64 	bl	8003dc8 <follow_path>
 8004300:	b9e8      	cbnz	r0, 800433e <f_opendir+0x60>
 8004302:	f994 302b 	ldrsb.w	r3, [r4, #43]	; 0x2b
 8004306:	2b00      	cmp	r3, #0
 8004308:	db0b      	blt.n	8004322 <f_opendir+0x44>
 800430a:	79a3      	ldrb	r3, [r4, #6]
 800430c:	06db      	lsls	r3, r3, #27
 800430e:	d403      	bmi.n	8004318 <f_opendir+0x3a>
 8004310:	2005      	movs	r0, #5
 8004312:	2300      	movs	r3, #0
 8004314:	6023      	str	r3, [r4, #0]
 8004316:	e00e      	b.n	8004336 <f_opendir+0x58>
 8004318:	7828      	ldrb	r0, [r5, #0]
 800431a:	69e1      	ldr	r1, [r4, #28]
 800431c:	f7ff f944 	bl	80035a8 <ld_clust.isra.0>
 8004320:	60a0      	str	r0, [r4, #8]
 8004322:	88eb      	ldrh	r3, [r5, #6]
 8004324:	80a3      	strh	r3, [r4, #4]
 8004326:	2100      	movs	r1, #0
 8004328:	4620      	mov	r0, r4
 800432a:	f7ff fa2b 	bl	8003784 <dir_sdi>
 800432e:	2804      	cmp	r0, #4
 8004330:	d0ee      	beq.n	8004310 <f_opendir+0x32>
 8004332:	2800      	cmp	r0, #0
 8004334:	d1ed      	bne.n	8004312 <f_opendir+0x34>
 8004336:	b005      	add	sp, #20
 8004338:	bd30      	pop	{r4, r5, pc}
 800433a:	2009      	movs	r0, #9
 800433c:	e7fb      	b.n	8004336 <f_opendir+0x58>
 800433e:	2804      	cmp	r0, #4
 8004340:	d0e6      	beq.n	8004310 <f_opendir+0x32>
 8004342:	e7e6      	b.n	8004312 <f_opendir+0x34>

08004344 <f_closedir>:
 8004344:	b513      	push	{r0, r1, r4, lr}
 8004346:	a901      	add	r1, sp, #4
 8004348:	4604      	mov	r4, r0
 800434a:	f7fe fe25 	bl	8002f98 <validate>
 800434e:	b900      	cbnz	r0, 8004352 <f_closedir+0xe>
 8004350:	6020      	str	r0, [r4, #0]
 8004352:	b002      	add	sp, #8
 8004354:	bd10      	pop	{r4, pc}

08004356 <f_readdir>:
 8004356:	b573      	push	{r0, r1, r4, r5, r6, lr}
 8004358:	460d      	mov	r5, r1
 800435a:	a901      	add	r1, sp, #4
 800435c:	4604      	mov	r4, r0
 800435e:	f7fe fe1b 	bl	8002f98 <validate>
 8004362:	b9c0      	cbnz	r0, 8004396 <f_readdir+0x40>
 8004364:	b935      	cbnz	r5, 8004374 <f_readdir+0x1e>
 8004366:	4629      	mov	r1, r5
 8004368:	4620      	mov	r0, r4
 800436a:	b002      	add	sp, #8
 800436c:	e8bd 4070 	ldmia.w	sp!, {r4, r5, r6, lr}
 8004370:	f7ff ba08 	b.w	8003784 <dir_sdi>
 8004374:	4620      	mov	r0, r4
 8004376:	f7ff fcad 	bl	8003cd4 <dir_read.constprop.0>
 800437a:	f010 06fb 	ands.w	r6, r0, #251	; 0xfb
 800437e:	d10a      	bne.n	8004396 <f_readdir+0x40>
 8004380:	4629      	mov	r1, r5
 8004382:	4620      	mov	r0, r4
 8004384:	f7fe fe22 	bl	8002fcc <get_fileinfo>
 8004388:	4631      	mov	r1, r6
 800438a:	4620      	mov	r0, r4
 800438c:	f7ff fa3a 	bl	8003804 <dir_next>
 8004390:	2804      	cmp	r0, #4
 8004392:	bf08      	it	eq
 8004394:	2000      	moveq	r0, #0
 8004396:	b002      	add	sp, #8
 8004398:	bd70      	pop	{r4, r5, r6, pc}
	...

0800439c <FATFS_LinkDriverEx>:
 800439c:	b530      	push	{r4, r5, lr}
 800439e:	4b0e      	ldr	r3, [pc, #56]	; (80043d8 <FATFS_LinkDriverEx+0x3c>)
 80043a0:	7a5d      	ldrb	r5, [r3, #9]
 80043a2:	f005 04ff 	and.w	r4, r5, #255	; 0xff
 80043a6:	b9ad      	cbnz	r5, 80043d4 <FATFS_LinkDriverEx+0x38>
 80043a8:	7a5d      	ldrb	r5, [r3, #9]
 80043aa:	555c      	strb	r4, [r3, r5]
 80043ac:	7a5d      	ldrb	r5, [r3, #9]
 80043ae:	eb03 0585 	add.w	r5, r3, r5, lsl #2
 80043b2:	6068      	str	r0, [r5, #4]
 80043b4:	7a58      	ldrb	r0, [r3, #9]
 80043b6:	4418      	add	r0, r3
 80043b8:	7202      	strb	r2, [r0, #8]
 80043ba:	7a5a      	ldrb	r2, [r3, #9]
 80043bc:	1c50      	adds	r0, r2, #1
 80043be:	b2c0      	uxtb	r0, r0
 80043c0:	7258      	strb	r0, [r3, #9]
 80043c2:	233a      	movs	r3, #58	; 0x3a
 80043c4:	3230      	adds	r2, #48	; 0x30
 80043c6:	704b      	strb	r3, [r1, #1]
 80043c8:	232f      	movs	r3, #47	; 0x2f
 80043ca:	700a      	strb	r2, [r1, #0]
 80043cc:	708b      	strb	r3, [r1, #2]
 80043ce:	70cc      	strb	r4, [r1, #3]
 80043d0:	4620      	mov	r0, r4
 80043d2:	bd30      	pop	{r4, r5, pc}
 80043d4:	2401      	movs	r4, #1
 80043d6:	e7fb      	b.n	80043d0 <FATFS_LinkDriverEx+0x34>
 80043d8:	20000808 	.word	0x20000808

080043dc <FATFS_LinkDriver>:
 80043dc:	2200      	movs	r2, #0
 80043de:	f7ff bfdd 	b.w	800439c <FATFS_LinkDriverEx>
	...

080043e4 <ff_convert>:
 80043e4:	287f      	cmp	r0, #127	; 0x7f
 80043e6:	b510      	push	{r4, lr}
 80043e8:	d906      	bls.n	80043f8 <ff_convert+0x14>
 80043ea:	b131      	cbz	r1, 80043fa <ff_convert+0x16>
 80043ec:	28ff      	cmp	r0, #255	; 0xff
 80043ee:	d811      	bhi.n	8004414 <ff_convert+0x30>
 80043f0:	4b09      	ldr	r3, [pc, #36]	; (8004418 <ff_convert+0x34>)
 80043f2:	3880      	subs	r0, #128	; 0x80
 80043f4:	f833 0010 	ldrh.w	r0, [r3, r0, lsl #1]
 80043f8:	bd10      	pop	{r4, pc}
 80043fa:	4a07      	ldr	r2, [pc, #28]	; (8004418 <ff_convert+0x34>)
 80043fc:	f832 4b02 	ldrh.w	r4, [r2], #2
 8004400:	4284      	cmp	r4, r0
 8004402:	b28b      	uxth	r3, r1
 8004404:	d003      	beq.n	800440e <ff_convert+0x2a>
 8004406:	3101      	adds	r1, #1
 8004408:	2980      	cmp	r1, #128	; 0x80
 800440a:	d1f7      	bne.n	80043fc <ff_convert+0x18>
 800440c:	460b      	mov	r3, r1
 800440e:	3380      	adds	r3, #128	; 0x80
 8004410:	b2d8      	uxtb	r0, r3
 8004412:	e7f1      	b.n	80043f8 <ff_convert+0x14>
 8004414:	2000      	movs	r0, #0
 8004416:	e7ef      	b.n	80043f8 <ff_convert+0x14>
 8004418:	08007d92 	.word	0x08007d92

0800441c <ff_wtoupper>:
 800441c:	b570      	push	{r4, r5, r6, lr}
 800441e:	4b1e      	ldr	r3, [pc, #120]	; (8004498 <ff_wtoupper+0x7c>)
 8004420:	4a1e      	ldr	r2, [pc, #120]	; (800449c <ff_wtoupper+0x80>)
 8004422:	f5b0 5f80 	cmp.w	r0, #4096	; 0x1000
 8004426:	bf28      	it	cs
 8004428:	4613      	movcs	r3, r2
 800442a:	1d19      	adds	r1, r3, #4
 800442c:	f831 3c04 	ldrh.w	r3, [r1, #-4]
 8004430:	460a      	mov	r2, r1
 8004432:	b1ab      	cbz	r3, 8004460 <ff_wtoupper+0x44>
 8004434:	4298      	cmp	r0, r3
 8004436:	d313      	bcc.n	8004460 <ff_wtoupper+0x44>
 8004438:	f831 4c02 	ldrh.w	r4, [r1, #-2]
 800443c:	0a25      	lsrs	r5, r4, #8
 800443e:	b2e6      	uxtb	r6, r4
 8004440:	fa53 f484 	uxtab	r4, r3, r4
 8004444:	42a0      	cmp	r0, r4
 8004446:	da21      	bge.n	800448c <ff_wtoupper+0x70>
 8004448:	2d08      	cmp	r5, #8
 800444a:	d809      	bhi.n	8004460 <ff_wtoupper+0x44>
 800444c:	e8df f005 	tbb	[pc, r5]
 8004450:	110f0905 	.word	0x110f0905
 8004454:	19171513 	.word	0x19171513
 8004458:	1b          	.byte	0x1b
 8004459:	00          	.byte	0x00
 800445a:	1ac0      	subs	r0, r0, r3
 800445c:	f831 0010 	ldrh.w	r0, [r1, r0, lsl #1]
 8004460:	bd70      	pop	{r4, r5, r6, pc}
 8004462:	1ac3      	subs	r3, r0, r3
 8004464:	f003 0301 	and.w	r3, r3, #1
 8004468:	1ac0      	subs	r0, r0, r3
 800446a:	b280      	uxth	r0, r0
 800446c:	e7f8      	b.n	8004460 <ff_wtoupper+0x44>
 800446e:	3810      	subs	r0, #16
 8004470:	e7fb      	b.n	800446a <ff_wtoupper+0x4e>
 8004472:	3820      	subs	r0, #32
 8004474:	e7f9      	b.n	800446a <ff_wtoupper+0x4e>
 8004476:	3830      	subs	r0, #48	; 0x30
 8004478:	e7f7      	b.n	800446a <ff_wtoupper+0x4e>
 800447a:	381a      	subs	r0, #26
 800447c:	e7f5      	b.n	800446a <ff_wtoupper+0x4e>
 800447e:	3008      	adds	r0, #8
 8004480:	e7f3      	b.n	800446a <ff_wtoupper+0x4e>
 8004482:	3850      	subs	r0, #80	; 0x50
 8004484:	e7f1      	b.n	800446a <ff_wtoupper+0x4e>
 8004486:	f5a0 50e3 	sub.w	r0, r0, #7264	; 0x1c60
 800448a:	e7ee      	b.n	800446a <ff_wtoupper+0x4e>
 800448c:	3104      	adds	r1, #4
 800448e:	2d00      	cmp	r5, #0
 8004490:	d1cc      	bne.n	800442c <ff_wtoupper+0x10>
 8004492:	eb02 0346 	add.w	r3, r2, r6, lsl #1
 8004496:	e7c8      	b.n	800442a <ff_wtoupper+0xe>
 8004498:	08007e92 	.word	0x08007e92
 800449c:	08008084 	.word	0x08008084

080044a0 <my_strcpy_fixed_sym>:
 80044a0:	3901      	subs	r1, #1
 80044a2:	4402      	add	r2, r0
 80044a4:	1a13      	subs	r3, r2, r0
 80044a6:	2b00      	cmp	r3, #0
 80044a8:	dc02      	bgt.n	80044b0 <my_strcpy_fixed_sym+0x10>
 80044aa:	2300      	movs	r3, #0
 80044ac:	7003      	strb	r3, [r0, #0]
 80044ae:	4770      	bx	lr
 80044b0:	f811 3f01 	ldrb.w	r3, [r1, #1]!
 80044b4:	2b00      	cmp	r3, #0
 80044b6:	d0f8      	beq.n	80044aa <my_strcpy_fixed_sym+0xa>
 80044b8:	f800 3b01 	strb.w	r3, [r0], #1
 80044bc:	e7f2      	b.n	80044a4 <my_strcpy_fixed_sym+0x4>

080044be <my_strcpy>:
 80044be:	3901      	subs	r1, #1
 80044c0:	f811 3f01 	ldrb.w	r3, [r1, #1]!
 80044c4:	b90b      	cbnz	r3, 80044ca <my_strcpy+0xc>
 80044c6:	7003      	strb	r3, [r0, #0]
 80044c8:	4770      	bx	lr
 80044ca:	f800 3b01 	strb.w	r3, [r0], #1
 80044ce:	e7f7      	b.n	80044c0 <my_strcpy+0x2>

080044d0 <my_strlen>:
 80044d0:	2300      	movs	r3, #0
 80044d2:	5cc2      	ldrb	r2, [r0, r3]
 80044d4:	b90a      	cbnz	r2, 80044da <my_strlen+0xa>
 80044d6:	4618      	mov	r0, r3
 80044d8:	4770      	bx	lr
 80044da:	3301      	adds	r3, #1
 80044dc:	e7f9      	b.n	80044d2 <my_strlen+0x2>

080044de <my_strcat_fixed_sym>:
 80044de:	b538      	push	{r3, r4, r5, lr}
 80044e0:	4604      	mov	r4, r0
 80044e2:	4615      	mov	r5, r2
 80044e4:	f7ff fff4 	bl	80044d0 <my_strlen>
 80044e8:	4420      	add	r0, r4
 80044ea:	3901      	subs	r1, #1
 80044ec:	4405      	add	r5, r0
 80044ee:	1a2b      	subs	r3, r5, r0
 80044f0:	2b00      	cmp	r3, #0
 80044f2:	dc02      	bgt.n	80044fa <my_strcat_fixed_sym+0x1c>
 80044f4:	2300      	movs	r3, #0
 80044f6:	7003      	strb	r3, [r0, #0]
 80044f8:	bd38      	pop	{r3, r4, r5, pc}
 80044fa:	f811 3f01 	ldrb.w	r3, [r1, #1]!
 80044fe:	2b00      	cmp	r3, #0
 8004500:	d0f8      	beq.n	80044f4 <my_strcat_fixed_sym+0x16>
 8004502:	f800 3b01 	strb.w	r3, [r0], #1
 8004506:	e7f2      	b.n	80044ee <my_strcat_fixed_sym+0x10>

08004508 <my_strcat>:
 8004508:	b510      	push	{r4, lr}
 800450a:	4604      	mov	r4, r0
 800450c:	f7ff ffe0 	bl	80044d0 <my_strlen>
 8004510:	3901      	subs	r1, #1
 8004512:	4420      	add	r0, r4
 8004514:	f811 3f01 	ldrb.w	r3, [r1, #1]!
 8004518:	b90b      	cbnz	r3, 800451e <my_strcat+0x16>
 800451a:	7003      	strb	r3, [r0, #0]
 800451c:	bd10      	pop	{r4, pc}
 800451e:	f800 3b01 	strb.w	r3, [r0], #1
 8004522:	e7f7      	b.n	8004514 <my_strcat+0xc>

08004524 <my_strcpy_mem>:
 8004524:	b510      	push	{r4, lr}
 8004526:	4604      	mov	r4, r0
 8004528:	f7ff ffd2 	bl	80044d0 <my_strlen>
 800452c:	2101      	movs	r1, #1
 800452e:	4408      	add	r0, r1
 8004530:	f000 f842 	bl	80045b8 <calloc>
 8004534:	4602      	mov	r2, r0
 8004536:	b110      	cbz	r0, 800453e <my_strcpy_mem+0x1a>
 8004538:	4621      	mov	r1, r4
 800453a:	f7ff ffc0 	bl	80044be <my_strcpy>
 800453e:	4610      	mov	r0, r2
 8004540:	bd10      	pop	{r4, pc}

08004542 <my_strsplice>:
 8004542:	b40e      	push	{r1, r2, r3}
 8004544:	b5f3      	push	{r0, r1, r4, r5, r6, r7, lr}
 8004546:	ae07      	add	r6, sp, #28
 8004548:	4604      	mov	r4, r0
 800454a:	f856 7b04 	ldr.w	r7, [r6], #4
 800454e:	9601      	str	r6, [sp, #4]
 8004550:	4601      	mov	r1, r0
 8004552:	2500      	movs	r5, #0
 8004554:	b969      	cbnz	r1, 8004572 <my_strsplice+0x30>
 8004556:	2101      	movs	r1, #1
 8004558:	1868      	adds	r0, r5, r1
 800455a:	f000 f82d 	bl	80045b8 <calloc>
 800455e:	4605      	mov	r5, r0
 8004560:	b108      	cbz	r0, 8004566 <my_strsplice+0x24>
 8004562:	9601      	str	r6, [sp, #4]
 8004564:	b9ac      	cbnz	r4, 8004592 <my_strsplice+0x50>
 8004566:	4628      	mov	r0, r5
 8004568:	b002      	add	sp, #8
 800456a:	e8bd 40f0 	ldmia.w	sp!, {r4, r5, r6, r7, lr}
 800456e:	b003      	add	sp, #12
 8004570:	4770      	bx	lr
 8004572:	9b01      	ldr	r3, [sp, #4]
 8004574:	1d1a      	adds	r2, r3, #4
 8004576:	6818      	ldr	r0, [r3, #0]
 8004578:	9201      	str	r2, [sp, #4]
 800457a:	f7ff ffa9 	bl	80044d0 <my_strlen>
 800457e:	b130      	cbz	r0, 800458e <my_strsplice+0x4c>
 8004580:	2901      	cmp	r1, #1
 8004582:	4405      	add	r5, r0
 8004584:	d003      	beq.n	800458e <my_strsplice+0x4c>
 8004586:	4638      	mov	r0, r7
 8004588:	f7ff ffa2 	bl	80044d0 <my_strlen>
 800458c:	4405      	add	r5, r0
 800458e:	3901      	subs	r1, #1
 8004590:	e7e0      	b.n	8004554 <my_strsplice+0x12>
 8004592:	9b01      	ldr	r3, [sp, #4]
 8004594:	6819      	ldr	r1, [r3, #0]
 8004596:	1d1a      	adds	r2, r3, #4
 8004598:	4608      	mov	r0, r1
 800459a:	9201      	str	r2, [sp, #4]
 800459c:	f7ff ff98 	bl	80044d0 <my_strlen>
 80045a0:	b140      	cbz	r0, 80045b4 <my_strsplice+0x72>
 80045a2:	4628      	mov	r0, r5
 80045a4:	f7ff ffb0 	bl	8004508 <my_strcat>
 80045a8:	2c01      	cmp	r4, #1
 80045aa:	d003      	beq.n	80045b4 <my_strsplice+0x72>
 80045ac:	4639      	mov	r1, r7
 80045ae:	4628      	mov	r0, r5
 80045b0:	f7ff ffaa 	bl	8004508 <my_strcat>
 80045b4:	3c01      	subs	r4, #1
 80045b6:	e7d5      	b.n	8004564 <my_strsplice+0x22>

080045b8 <calloc>:
 80045b8:	4b02      	ldr	r3, [pc, #8]	; (80045c4 <calloc+0xc>)
 80045ba:	460a      	mov	r2, r1
 80045bc:	4601      	mov	r1, r0
 80045be:	6818      	ldr	r0, [r3, #0]
 80045c0:	f000 b802 	b.w	80045c8 <_calloc_r>
 80045c4:	20000104 	.word	0x20000104

080045c8 <_calloc_r>:
 80045c8:	b537      	push	{r0, r1, r2, r4, r5, lr}
 80045ca:	fba1 2402 	umull	r2, r4, r1, r2
 80045ce:	b94c      	cbnz	r4, 80045e4 <_calloc_r+0x1c>
 80045d0:	4611      	mov	r1, r2
 80045d2:	9201      	str	r2, [sp, #4]
 80045d4:	f000 f836 	bl	8004644 <_malloc_r>
 80045d8:	9a01      	ldr	r2, [sp, #4]
 80045da:	4605      	mov	r5, r0
 80045dc:	b930      	cbnz	r0, 80045ec <_calloc_r+0x24>
 80045de:	4628      	mov	r0, r5
 80045e0:	b003      	add	sp, #12
 80045e2:	bd30      	pop	{r4, r5, pc}
 80045e4:	220c      	movs	r2, #12
 80045e6:	6002      	str	r2, [r0, #0]
 80045e8:	2500      	movs	r5, #0
 80045ea:	e7f8      	b.n	80045de <_calloc_r+0x16>
 80045ec:	4621      	mov	r1, r4
 80045ee:	f000 f906 	bl	80047fe <memset>
 80045f2:	e7f4      	b.n	80045de <_calloc_r+0x16>

080045f4 <free>:
 80045f4:	4b02      	ldr	r3, [pc, #8]	; (8004600 <free+0xc>)
 80045f6:	4601      	mov	r1, r0
 80045f8:	6818      	ldr	r0, [r3, #0]
 80045fa:	f000 b969 	b.w	80048d0 <_free_r>
 80045fe:	bf00      	nop
 8004600:	20000104 	.word	0x20000104

08004604 <sbrk_aligned>:
 8004604:	b570      	push	{r4, r5, r6, lr}
 8004606:	4e0e      	ldr	r6, [pc, #56]	; (8004640 <sbrk_aligned+0x3c>)
 8004608:	460c      	mov	r4, r1
 800460a:	6831      	ldr	r1, [r6, #0]
 800460c:	4605      	mov	r5, r0
 800460e:	b911      	cbnz	r1, 8004616 <sbrk_aligned+0x12>
 8004610:	f000 f914 	bl	800483c <_sbrk_r>
 8004614:	6030      	str	r0, [r6, #0]
 8004616:	4621      	mov	r1, r4
 8004618:	4628      	mov	r0, r5
 800461a:	f000 f90f 	bl	800483c <_sbrk_r>
 800461e:	1c43      	adds	r3, r0, #1
 8004620:	d00a      	beq.n	8004638 <sbrk_aligned+0x34>
 8004622:	1cc4      	adds	r4, r0, #3
 8004624:	f024 0403 	bic.w	r4, r4, #3
 8004628:	42a0      	cmp	r0, r4
 800462a:	d007      	beq.n	800463c <sbrk_aligned+0x38>
 800462c:	1a21      	subs	r1, r4, r0
 800462e:	4628      	mov	r0, r5
 8004630:	f000 f904 	bl	800483c <_sbrk_r>
 8004634:	3001      	adds	r0, #1
 8004636:	d101      	bne.n	800463c <sbrk_aligned+0x38>
 8004638:	f04f 34ff 	mov.w	r4, #4294967295
 800463c:	4620      	mov	r0, r4
 800463e:	bd70      	pop	{r4, r5, r6, pc}
 8004640:	20000818 	.word	0x20000818

08004644 <_malloc_r>:
 8004644:	e92d 43f8 	stmdb	sp!, {r3, r4, r5, r6, r7, r8, r9, lr}
 8004648:	1ccd      	adds	r5, r1, #3
 800464a:	f025 0503 	bic.w	r5, r5, #3
 800464e:	3508      	adds	r5, #8
 8004650:	2d0c      	cmp	r5, #12
 8004652:	bf38      	it	cc
 8004654:	250c      	movcc	r5, #12
 8004656:	2d00      	cmp	r5, #0
 8004658:	4607      	mov	r7, r0
 800465a:	db01      	blt.n	8004660 <_malloc_r+0x1c>
 800465c:	42a9      	cmp	r1, r5
 800465e:	d905      	bls.n	800466c <_malloc_r+0x28>
 8004660:	230c      	movs	r3, #12
 8004662:	603b      	str	r3, [r7, #0]
 8004664:	2600      	movs	r6, #0
 8004666:	4630      	mov	r0, r6
 8004668:	e8bd 83f8 	ldmia.w	sp!, {r3, r4, r5, r6, r7, r8, r9, pc}
 800466c:	f8df 80d0 	ldr.w	r8, [pc, #208]	; 8004740 <_malloc_r+0xfc>
 8004670:	f000 f868 	bl	8004744 <__malloc_lock>
 8004674:	f8d8 3000 	ldr.w	r3, [r8]
 8004678:	461c      	mov	r4, r3
 800467a:	bb5c      	cbnz	r4, 80046d4 <_malloc_r+0x90>
 800467c:	4629      	mov	r1, r5
 800467e:	4638      	mov	r0, r7
 8004680:	f7ff ffc0 	bl	8004604 <sbrk_aligned>
 8004684:	1c43      	adds	r3, r0, #1
 8004686:	4604      	mov	r4, r0
 8004688:	d155      	bne.n	8004736 <_malloc_r+0xf2>
 800468a:	f8d8 4000 	ldr.w	r4, [r8]
 800468e:	4626      	mov	r6, r4
 8004690:	2e00      	cmp	r6, #0
 8004692:	d145      	bne.n	8004720 <_malloc_r+0xdc>
 8004694:	2c00      	cmp	r4, #0
 8004696:	d048      	beq.n	800472a <_malloc_r+0xe6>
 8004698:	6823      	ldr	r3, [r4, #0]
 800469a:	4631      	mov	r1, r6
 800469c:	4638      	mov	r0, r7
 800469e:	eb04 0903 	add.w	r9, r4, r3
 80046a2:	f000 f8cb 	bl	800483c <_sbrk_r>
 80046a6:	4581      	cmp	r9, r0
 80046a8:	d13f      	bne.n	800472a <_malloc_r+0xe6>
 80046aa:	6821      	ldr	r1, [r4, #0]
 80046ac:	1a6d      	subs	r5, r5, r1
 80046ae:	4629      	mov	r1, r5
 80046b0:	4638      	mov	r0, r7
 80046b2:	f7ff ffa7 	bl	8004604 <sbrk_aligned>
 80046b6:	3001      	adds	r0, #1
 80046b8:	d037      	beq.n	800472a <_malloc_r+0xe6>
 80046ba:	6823      	ldr	r3, [r4, #0]
 80046bc:	442b      	add	r3, r5
 80046be:	6023      	str	r3, [r4, #0]
 80046c0:	f8d8 3000 	ldr.w	r3, [r8]
 80046c4:	2b00      	cmp	r3, #0
 80046c6:	d038      	beq.n	800473a <_malloc_r+0xf6>
 80046c8:	685a      	ldr	r2, [r3, #4]
 80046ca:	42a2      	cmp	r2, r4
 80046cc:	d12b      	bne.n	8004726 <_malloc_r+0xe2>
 80046ce:	2200      	movs	r2, #0
 80046d0:	605a      	str	r2, [r3, #4]
 80046d2:	e00f      	b.n	80046f4 <_malloc_r+0xb0>
 80046d4:	6822      	ldr	r2, [r4, #0]
 80046d6:	1b52      	subs	r2, r2, r5
 80046d8:	d41f      	bmi.n	800471a <_malloc_r+0xd6>
 80046da:	2a0b      	cmp	r2, #11
 80046dc:	d917      	bls.n	800470e <_malloc_r+0xca>
 80046de:	1961      	adds	r1, r4, r5
 80046e0:	42a3      	cmp	r3, r4
 80046e2:	6025      	str	r5, [r4, #0]
 80046e4:	bf18      	it	ne
 80046e6:	6059      	strne	r1, [r3, #4]
 80046e8:	6863      	ldr	r3, [r4, #4]
 80046ea:	bf08      	it	eq
 80046ec:	f8c8 1000 	streq.w	r1, [r8]
 80046f0:	5162      	str	r2, [r4, r5]
 80046f2:	604b      	str	r3, [r1, #4]
 80046f4:	4638      	mov	r0, r7
 80046f6:	f104 060b 	add.w	r6, r4, #11
 80046fa:	f000 f829 	bl	8004750 <__malloc_unlock>
 80046fe:	f026 0607 	bic.w	r6, r6, #7
 8004702:	1d23      	adds	r3, r4, #4
 8004704:	1af2      	subs	r2, r6, r3
 8004706:	d0ae      	beq.n	8004666 <_malloc_r+0x22>
 8004708:	1b9b      	subs	r3, r3, r6
 800470a:	50a3      	str	r3, [r4, r2]
 800470c:	e7ab      	b.n	8004666 <_malloc_r+0x22>
 800470e:	42a3      	cmp	r3, r4
 8004710:	6862      	ldr	r2, [r4, #4]
 8004712:	d1dd      	bne.n	80046d0 <_malloc_r+0x8c>
 8004714:	f8c8 2000 	str.w	r2, [r8]
 8004718:	e7ec      	b.n	80046f4 <_malloc_r+0xb0>
 800471a:	4623      	mov	r3, r4
 800471c:	6864      	ldr	r4, [r4, #4]
 800471e:	e7ac      	b.n	800467a <_malloc_r+0x36>
 8004720:	4634      	mov	r4, r6
 8004722:	6876      	ldr	r6, [r6, #4]
 8004724:	e7b4      	b.n	8004690 <_malloc_r+0x4c>
 8004726:	4613      	mov	r3, r2
 8004728:	e7cc      	b.n	80046c4 <_malloc_r+0x80>
 800472a:	230c      	movs	r3, #12
 800472c:	603b      	str	r3, [r7, #0]
 800472e:	4638      	mov	r0, r7
 8004730:	f000 f80e 	bl	8004750 <__malloc_unlock>
 8004734:	e797      	b.n	8004666 <_malloc_r+0x22>
 8004736:	6025      	str	r5, [r4, #0]
 8004738:	e7dc      	b.n	80046f4 <_malloc_r+0xb0>
 800473a:	605b      	str	r3, [r3, #4]
 800473c:	deff      	udf	#255	; 0xff
 800473e:	bf00      	nop
 8004740:	20000814 	.word	0x20000814

08004744 <__malloc_lock>:
 8004744:	4801      	ldr	r0, [pc, #4]	; (800474c <__malloc_lock+0x8>)
 8004746:	f000 b8b3 	b.w	80048b0 <__retarget_lock_acquire_recursive>
 800474a:	bf00      	nop
 800474c:	20000958 	.word	0x20000958

08004750 <__malloc_unlock>:
 8004750:	4801      	ldr	r0, [pc, #4]	; (8004758 <__malloc_unlock+0x8>)
 8004752:	f000 b8ae 	b.w	80048b2 <__retarget_lock_release_recursive>
 8004756:	bf00      	nop
 8004758:	20000958 	.word	0x20000958

0800475c <realloc>:
 800475c:	4b02      	ldr	r3, [pc, #8]	; (8004768 <realloc+0xc>)
 800475e:	460a      	mov	r2, r1
 8004760:	4601      	mov	r1, r0
 8004762:	6818      	ldr	r0, [r3, #0]
 8004764:	f000 b802 	b.w	800476c <_realloc_r>
 8004768:	20000104 	.word	0x20000104

0800476c <_realloc_r>:
 800476c:	e92d 41f0 	stmdb	sp!, {r4, r5, r6, r7, r8, lr}
 8004770:	4680      	mov	r8, r0
 8004772:	4614      	mov	r4, r2
 8004774:	460e      	mov	r6, r1
 8004776:	b921      	cbnz	r1, 8004782 <_realloc_r+0x16>
 8004778:	e8bd 41f0 	ldmia.w	sp!, {r4, r5, r6, r7, r8, lr}
 800477c:	4611      	mov	r1, r2
 800477e:	f7ff bf61 	b.w	8004644 <_malloc_r>
 8004782:	b92a      	cbnz	r2, 8004790 <_realloc_r+0x24>
 8004784:	f000 f8a4 	bl	80048d0 <_free_r>
 8004788:	4625      	mov	r5, r4
 800478a:	4628      	mov	r0, r5
 800478c:	e8bd 81f0 	ldmia.w	sp!, {r4, r5, r6, r7, r8, pc}
 8004790:	f000 f8ea 	bl	8004968 <_malloc_usable_size_r>
 8004794:	4284      	cmp	r4, r0
 8004796:	4607      	mov	r7, r0
 8004798:	d802      	bhi.n	80047a0 <_realloc_r+0x34>
 800479a:	ebb4 0f50 	cmp.w	r4, r0, lsr #1
 800479e:	d812      	bhi.n	80047c6 <_realloc_r+0x5a>
 80047a0:	4621      	mov	r1, r4
 80047a2:	4640      	mov	r0, r8
 80047a4:	f7ff ff4e 	bl	8004644 <_malloc_r>
 80047a8:	4605      	mov	r5, r0
 80047aa:	2800      	cmp	r0, #0
 80047ac:	d0ed      	beq.n	800478a <_realloc_r+0x1e>
 80047ae:	42bc      	cmp	r4, r7
 80047b0:	4622      	mov	r2, r4
 80047b2:	4631      	mov	r1, r6
 80047b4:	bf28      	it	cs
 80047b6:	463a      	movcs	r2, r7
 80047b8:	f000 f87c 	bl	80048b4 <memcpy>
 80047bc:	4631      	mov	r1, r6
 80047be:	4640      	mov	r0, r8
 80047c0:	f000 f886 	bl	80048d0 <_free_r>
 80047c4:	e7e1      	b.n	800478a <_realloc_r+0x1e>
 80047c6:	4635      	mov	r5, r6
 80047c8:	e7df      	b.n	800478a <_realloc_r+0x1e>

080047ca <memmove>:
 80047ca:	4288      	cmp	r0, r1
 80047cc:	b510      	push	{r4, lr}
 80047ce:	eb01 0402 	add.w	r4, r1, r2
 80047d2:	d902      	bls.n	80047da <memmove+0x10>
 80047d4:	4284      	cmp	r4, r0
 80047d6:	4623      	mov	r3, r4
 80047d8:	d807      	bhi.n	80047ea <memmove+0x20>
 80047da:	1e43      	subs	r3, r0, #1
 80047dc:	42a1      	cmp	r1, r4
 80047de:	d008      	beq.n	80047f2 <memmove+0x28>
 80047e0:	f811 2b01 	ldrb.w	r2, [r1], #1
 80047e4:	f803 2f01 	strb.w	r2, [r3, #1]!
 80047e8:	e7f8      	b.n	80047dc <memmove+0x12>
 80047ea:	4402      	add	r2, r0
 80047ec:	4601      	mov	r1, r0
 80047ee:	428a      	cmp	r2, r1
 80047f0:	d100      	bne.n	80047f4 <memmove+0x2a>
 80047f2:	bd10      	pop	{r4, pc}
 80047f4:	f813 4d01 	ldrb.w	r4, [r3, #-1]!
 80047f8:	f802 4d01 	strb.w	r4, [r2, #-1]!
 80047fc:	e7f7      	b.n	80047ee <memmove+0x24>

080047fe <memset>:
 80047fe:	4402      	add	r2, r0
 8004800:	4603      	mov	r3, r0
 8004802:	4293      	cmp	r3, r2
 8004804:	d100      	bne.n	8004808 <memset+0xa>
 8004806:	4770      	bx	lr
 8004808:	f803 1b01 	strb.w	r1, [r3], #1
 800480c:	e7f9      	b.n	8004802 <memset+0x4>

0800480e <strstr>:
 800480e:	780a      	ldrb	r2, [r1, #0]
 8004810:	b570      	push	{r4, r5, r6, lr}
 8004812:	b96a      	cbnz	r2, 8004830 <strstr+0x22>
 8004814:	bd70      	pop	{r4, r5, r6, pc}
 8004816:	429a      	cmp	r2, r3
 8004818:	d109      	bne.n	800482e <strstr+0x20>
 800481a:	460c      	mov	r4, r1
 800481c:	4605      	mov	r5, r0
 800481e:	f814 3f01 	ldrb.w	r3, [r4, #1]!
 8004822:	2b00      	cmp	r3, #0
 8004824:	d0f6      	beq.n	8004814 <strstr+0x6>
 8004826:	f815 6f01 	ldrb.w	r6, [r5, #1]!
 800482a:	429e      	cmp	r6, r3
 800482c:	d0f7      	beq.n	800481e <strstr+0x10>
 800482e:	3001      	adds	r0, #1
 8004830:	7803      	ldrb	r3, [r0, #0]
 8004832:	2b00      	cmp	r3, #0
 8004834:	d1ef      	bne.n	8004816 <strstr+0x8>
 8004836:	4618      	mov	r0, r3
 8004838:	e7ec      	b.n	8004814 <strstr+0x6>
	...

0800483c <_sbrk_r>:
 800483c:	b538      	push	{r3, r4, r5, lr}
 800483e:	4d06      	ldr	r5, [pc, #24]	; (8004858 <_sbrk_r+0x1c>)
 8004840:	2300      	movs	r3, #0
 8004842:	4604      	mov	r4, r0
 8004844:	4608      	mov	r0, r1
 8004846:	602b      	str	r3, [r5, #0]
 8004848:	f7fc f8ba 	bl	80009c0 <_sbrk>
 800484c:	1c43      	adds	r3, r0, #1
 800484e:	d102      	bne.n	8004856 <_sbrk_r+0x1a>
 8004850:	682b      	ldr	r3, [r5, #0]
 8004852:	b103      	cbz	r3, 8004856 <_sbrk_r+0x1a>
 8004854:	6023      	str	r3, [r4, #0]
 8004856:	bd38      	pop	{r3, r4, r5, pc}
 8004858:	20000954 	.word	0x20000954

0800485c <__errno>:
 800485c:	4b01      	ldr	r3, [pc, #4]	; (8004864 <__errno+0x8>)
 800485e:	6818      	ldr	r0, [r3, #0]
 8004860:	4770      	bx	lr
 8004862:	bf00      	nop
 8004864:	20000104 	.word	0x20000104

08004868 <__libc_init_array>:
 8004868:	b570      	push	{r4, r5, r6, lr}
 800486a:	4d0d      	ldr	r5, [pc, #52]	; (80048a0 <__libc_init_array+0x38>)
 800486c:	4c0d      	ldr	r4, [pc, #52]	; (80048a4 <__libc_init_array+0x3c>)
 800486e:	1b64      	subs	r4, r4, r5
 8004870:	10a4      	asrs	r4, r4, #2
 8004872:	2600      	movs	r6, #0
 8004874:	42a6      	cmp	r6, r4
 8004876:	d109      	bne.n	800488c <__libc_init_array+0x24>
 8004878:	4d0b      	ldr	r5, [pc, #44]	; (80048a8 <__libc_init_array+0x40>)
 800487a:	4c0c      	ldr	r4, [pc, #48]	; (80048ac <__libc_init_array+0x44>)
 800487c:	f000 f87c 	bl	8004978 <_init>
 8004880:	1b64      	subs	r4, r4, r5
 8004882:	10a4      	asrs	r4, r4, #2
 8004884:	2600      	movs	r6, #0
 8004886:	42a6      	cmp	r6, r4
 8004888:	d105      	bne.n	8004896 <__libc_init_array+0x2e>
 800488a:	bd70      	pop	{r4, r5, r6, pc}
 800488c:	f855 3b04 	ldr.w	r3, [r5], #4
 8004890:	4798      	blx	r3
 8004892:	3601      	adds	r6, #1
 8004894:	e7ee      	b.n	8004874 <__libc_init_array+0xc>
 8004896:	f855 3b04 	ldr.w	r3, [r5], #4
 800489a:	4798      	blx	r3
 800489c:	3601      	adds	r6, #1
 800489e:	e7f2      	b.n	8004886 <__libc_init_array+0x1e>
 80048a0:	08008140 	.word	0x08008140
 80048a4:	08008140 	.word	0x08008140
 80048a8:	08008140 	.word	0x08008140
 80048ac:	08008144 	.word	0x08008144

080048b0 <__retarget_lock_acquire_recursive>:
 80048b0:	4770      	bx	lr

080048b2 <__retarget_lock_release_recursive>:
 80048b2:	4770      	bx	lr

080048b4 <memcpy>:
 80048b4:	440a      	add	r2, r1
 80048b6:	4291      	cmp	r1, r2
 80048b8:	f100 33ff 	add.w	r3, r0, #4294967295
 80048bc:	d100      	bne.n	80048c0 <memcpy+0xc>
 80048be:	4770      	bx	lr
 80048c0:	b510      	push	{r4, lr}
 80048c2:	f811 4b01 	ldrb.w	r4, [r1], #1
 80048c6:	f803 4f01 	strb.w	r4, [r3, #1]!
 80048ca:	4291      	cmp	r1, r2
 80048cc:	d1f9      	bne.n	80048c2 <memcpy+0xe>
 80048ce:	bd10      	pop	{r4, pc}

080048d0 <_free_r>:
 80048d0:	b537      	push	{r0, r1, r2, r4, r5, lr}
 80048d2:	2900      	cmp	r1, #0
 80048d4:	d044      	beq.n	8004960 <_free_r+0x90>
 80048d6:	f851 3c04 	ldr.w	r3, [r1, #-4]
 80048da:	9001      	str	r0, [sp, #4]
 80048dc:	2b00      	cmp	r3, #0
 80048de:	f1a1 0404 	sub.w	r4, r1, #4
 80048e2:	bfb8      	it	lt
 80048e4:	18e4      	addlt	r4, r4, r3
 80048e6:	f7ff ff2d 	bl	8004744 <__malloc_lock>
 80048ea:	4a1e      	ldr	r2, [pc, #120]	; (8004964 <_free_r+0x94>)
 80048ec:	9801      	ldr	r0, [sp, #4]
 80048ee:	6813      	ldr	r3, [r2, #0]
 80048f0:	b933      	cbnz	r3, 8004900 <_free_r+0x30>
 80048f2:	6063      	str	r3, [r4, #4]
 80048f4:	6014      	str	r4, [r2, #0]
 80048f6:	b003      	add	sp, #12
 80048f8:	e8bd 4030 	ldmia.w	sp!, {r4, r5, lr}
 80048fc:	f7ff bf28 	b.w	8004750 <__malloc_unlock>
 8004900:	42a3      	cmp	r3, r4
 8004902:	d908      	bls.n	8004916 <_free_r+0x46>
 8004904:	6825      	ldr	r5, [r4, #0]
 8004906:	1961      	adds	r1, r4, r5
 8004908:	428b      	cmp	r3, r1
 800490a:	bf01      	itttt	eq
 800490c:	6819      	ldreq	r1, [r3, #0]
 800490e:	685b      	ldreq	r3, [r3, #4]
 8004910:	1949      	addeq	r1, r1, r5
 8004912:	6021      	streq	r1, [r4, #0]
 8004914:	e7ed      	b.n	80048f2 <_free_r+0x22>
 8004916:	461a      	mov	r2, r3
 8004918:	685b      	ldr	r3, [r3, #4]
 800491a:	b10b      	cbz	r3, 8004920 <_free_r+0x50>
 800491c:	42a3      	cmp	r3, r4
 800491e:	d9fa      	bls.n	8004916 <_free_r+0x46>
 8004920:	6811      	ldr	r1, [r2, #0]
 8004922:	1855      	adds	r5, r2, r1
 8004924:	42a5      	cmp	r5, r4
 8004926:	d10b      	bne.n	8004940 <_free_r+0x70>
 8004928:	6824      	ldr	r4, [r4, #0]
 800492a:	4421      	add	r1, r4
 800492c:	1854      	adds	r4, r2, r1
 800492e:	42a3      	cmp	r3, r4
 8004930:	6011      	str	r1, [r2, #0]
 8004932:	d1e0      	bne.n	80048f6 <_free_r+0x26>
 8004934:	681c      	ldr	r4, [r3, #0]
 8004936:	685b      	ldr	r3, [r3, #4]
 8004938:	6053      	str	r3, [r2, #4]
 800493a:	440c      	add	r4, r1
 800493c:	6014      	str	r4, [r2, #0]
 800493e:	e7da      	b.n	80048f6 <_free_r+0x26>
 8004940:	d902      	bls.n	8004948 <_free_r+0x78>
 8004942:	230c      	movs	r3, #12
 8004944:	6003      	str	r3, [r0, #0]
 8004946:	e7d6      	b.n	80048f6 <_free_r+0x26>
 8004948:	6825      	ldr	r5, [r4, #0]
 800494a:	1961      	adds	r1, r4, r5
 800494c:	428b      	cmp	r3, r1
 800494e:	bf04      	itt	eq
 8004950:	6819      	ldreq	r1, [r3, #0]
 8004952:	685b      	ldreq	r3, [r3, #4]
 8004954:	6063      	str	r3, [r4, #4]
 8004956:	bf04      	itt	eq
 8004958:	1949      	addeq	r1, r1, r5
 800495a:	6021      	streq	r1, [r4, #0]
 800495c:	6054      	str	r4, [r2, #4]
 800495e:	e7ca      	b.n	80048f6 <_free_r+0x26>
 8004960:	b003      	add	sp, #12
 8004962:	bd30      	pop	{r4, r5, pc}
 8004964:	20000814 	.word	0x20000814

08004968 <_malloc_usable_size_r>:
 8004968:	f851 3c04 	ldr.w	r3, [r1, #-4]
 800496c:	1f18      	subs	r0, r3, #4
 800496e:	2b00      	cmp	r3, #0
 8004970:	bfbc      	itt	lt
 8004972:	580b      	ldrlt	r3, [r1, r0]
 8004974:	18c0      	addlt	r0, r0, r3
 8004976:	4770      	bx	lr

08004978 <_init>:
 8004978:	b5f8      	push	{r3, r4, r5, r6, r7, lr}
 800497a:	bf00      	nop
 800497c:	bcf8      	pop	{r3, r4, r5, r6, r7}
 800497e:	bc08      	pop	{r3}
 8004980:	469e      	mov	lr, r3
 8004982:	4770      	bx	lr

08004984 <_fini>:
 8004984:	b5f8      	push	{r3, r4, r5, r6, r7, lr}
 8004986:	bf00      	nop
 8004988:	bcf8      	pop	{r3, r4, r5, r6, r7}
 800498a:	bc08      	pop	{r3}
 800498c:	469e      	mov	lr, r3
 800498e:	4770      	bx	lr
